 NTDirect32

 Timestamp is 5bd6ff29 (Mon Oct 29 13:38:01 2018)

 Preferred load address is 10000000

 Start         Length     Name                   Class
 0001:00000000 000000d0H .text$di                CODE
 0001:000000d0 00021732H .text$mn                CODE
 0001:00021802 000001efH .text$x                 CODE
 0001:000219f1 00000050H .text$yd                CODE
 0002:00000000 000001a4H .idata$5                DATA
 0002:000001a4 00000004H .00cfg                  DATA
 0002:000001a8 00000004H .CRT$XCA                DATA
 0002:000001ac 0000001cH .CRT$XCC                DATA
 0002:000001c8 00000008H .CRT$XCL                DATA
 0002:000001d0 00000004H .CRT$XCU                DATA
 0002:000001d4 00000004H .CRT$XCZ                DATA
 0002:000001d8 00000004H .CRT$XIA                DATA
 0002:000001dc 00000014H .CRT$XIC                DATA
 0002:000001f0 00000004H .CRT$XIZ                DATA
 0002:000001f4 00000004H .CRT$XPA                DATA
 0002:000001f8 00000008H .CRT$XPX                DATA
 0002:00000200 00000004H .CRT$XPXA               DATA
 0002:00000204 00000004H .CRT$XPZ                DATA
 0002:00000208 00000004H .CRT$XTA                DATA
 0002:0000020c 00000004H .CRT$XTZ                DATA
 0002:00000210 00000000H .gfids$y                DATA
 0002:00000210 0000d070H .rdata                  DATA
 0002:0000d280 00000920H .rdata$r                DATA
 0002:0000dba0 0000004cH .rdata$sxdata           DATA
 0002:0000dbec 000003e8H .rdata$zzzdbg           DATA
 0002:0000dfd4 00000004H .rtc$IAA                DATA
 0002:0000dfd8 00000004H .rtc$IZZ                DATA
 0002:0000dfdc 00000004H .rtc$TAA                DATA
 0002:0000dfe0 00000008H .rtc$TZZ                DATA
 0002:0000dfe8 00000a14H .xdata$x                DATA
 0002:0000e9fc 00000020H .didat$2                DATA
 0002:0000ea1c 00000020H .didat$3                DATA
 0002:0000ea3c 00000080H .didat$4                DATA
 0002:0000eabc 000002f0H .didat$6                DATA
 0002:0000edac 00000084H .didat$7                DATA
 0002:0000ee30 00000058H .edata                  DATA
 0002:0000ee88 00000028H .idata$2                DATA
 0002:0000eeb0 00000014H .idata$3                DATA
 0002:0000eec4 000001a4H .idata$4                DATA
 0002:0000f068 000005a0H .idata$6                DATA
 0003:00000000 000009d8H .data                   DATA
 0003:000009d8 00000448H .data$r                 DATA
 0003:00000e20 00000080H .didat$5                DATA
 0003:00000ea0 00000e94H .bss                    DATA
 0004:00000000 00000060H .rsrc$01                DATA
 0004:00000060 00000180H .rsrc$02                DATA

  Address         Publics by Value              Rva+Base       Lib:Object

 0000:00000000       ___guard_iat_count         00000000     <absolute>
 0000:00000000       ___guard_longjmp_count     00000000     <absolute>
 0000:00000000       ___guard_fids_count        00000000     <absolute>
 0000:00000000       ___guard_longjmp_table     00000000     <absolute>
 0000:00000000       __except_list              00000000     <absolute>
 0000:00000000       ___hybrid_code_map_count   00000000     <absolute>
 0000:00000000       ___hybrid_auxiliary_iat    00000000     <absolute>
 0000:00000000       ___dynamic_value_reloc_table 00000000     <absolute>
 0000:00000000       ___guard_fids_table        00000000     <absolute>
 0000:00000000       ___guard_iat_table         00000000     <absolute>
 0000:00000000       ___volatile_metadata       00000000     <absolute>
 0000:00000000       ___enclave_config          00000000     <absolute>
 0000:00000000       ___hybrid_code_map         00000000     <absolute>
 0000:00000013       ___safe_se_handler_count   00000013     <absolute>
 0000:00000100       ___guard_flags             00000100     <absolute>
 0000:00000000       ___ImageBase               10000000     <linker-defined>
 0001:000000d0       ?Initialize@@YA?AVObject@Napi@@VEnv@2@V12@@Z 100010d0 f   main.obj
 0001:00000100       ?__napi_Initialize@@YAPAUnapi_value__@@PAUnapi_env__@@PAU1@@Z 10001100 f   main.obj
 0001:00000140       ___local_stdio_printf_options 10001140 f i api.obj
 0001:00000150       ?what@exception@stdext@@UBEPBDXZ 10001150 f i api.obj
 0001:00000160       ?_Raise@exception@stdext@@QBEXXZ 10001160 f i api.obj
 0001:00000190       ?_Doraise@exception@stdext@@MBEXXZ 10001190 f i api.obj
 0001:00000190       ?_Lock@?$basic_streambuf@DU?$char_traits@D@std@@@std@@UAEXXZ 10001190 f i libcpmt:cout.obj
 0001:00000190       @_guard_check_icall_nop@4  10001190 f i LIBCMT:guard_support.obj
 0001:00000190       ?_Unlock@?$basic_streambuf@DU?$char_traits@D@std@@@std@@UAEXXZ 10001190 f i libcpmt:cout.obj
 0001:000001a0       ??_Eexception@stdext@@UAEPAXI@Z 100011a0 f i * CIL library *:* CIL module *
 0001:000001a0       ??_Gruntime_error@std@@UAEPAXI@Z 100011a0 f i api.obj
 0001:000001a0       ??_Eruntime_error@std@@UAEPAXI@Z 100011a0 f i * CIL library *:* CIL module *
 0001:000001a0       ??_Gexception@stdext@@UAEPAXI@Z 100011a0 f i api.obj
 0001:000001d0       ??0runtime_error@std@@QAE@PBD@Z 100011d0 f i api.obj
 0001:000001f0       ??0_Locinfo@std@@QAE@PBD@Z 100011f0 f i api.obj
 0001:00000270       ??1_Locinfo@std@@QAE@XZ    10001270 f i api.obj
 0001:00000310       ??_G_Facet_base@std@@UAEPAXI@Z 10001310 f i api.obj
 0001:00000310       ??_E_Facet_base@std@@UAEPAXI@Z 10001310 f i * CIL library *:* CIL module *
 0001:00000340       ??Bid@locale@std@@QAEIXZ   10001340 f i api.obj
 0001:00000380       ?_Incref@facet@locale@std@@UAEXXZ 10001380 f i api.obj
 0001:00000390       ?_Decref@facet@locale@std@@UAEPAV_Facet_base@3@XZ 10001390 f i api.obj
 0001:000003b0       ??0locale@std@@QAE@ABV01@@Z 100013b0 f i api.obj
 0001:000003d0       ??1locale@std@@QAE@XZ      100013d0 f i api.obj
 0001:000003f0       ?c_str@locale@std@@QBEPBDXZ 100013f0 f i api.obj
 0001:00000410       ?_Getfacet@locale@std@@QBEPBVfacet@12@I@Z 10001410 f i api.obj
 0001:00000450       ?do_tolower@?$ctype@D@std@@MBEDD@Z 10001450 f i api.obj
 0001:00000470       ?do_tolower@?$ctype@D@std@@MBEPBDPADPBD@Z 10001470 f i api.obj
 0001:000004b0       ?do_toupper@?$ctype@D@std@@MBEDD@Z 100014b0 f i api.obj
 0001:000004d0       ?do_toupper@?$ctype@D@std@@MBEPBDPADPBD@Z 100014d0 f i api.obj
 0001:00000510       ?do_widen@?$ctype@D@std@@MBEDD@Z 10001510 f i api.obj
 0001:00000520       ?do_widen@?$ctype@D@std@@MBEPBDPBD0PAD@Z 10001520 f i api.obj
 0001:00000540       ?do_narrow@?$ctype@D@std@@MBEDDD@Z 10001540 f i api.obj
 0001:00000550       ?do_narrow@?$ctype@D@std@@MBEPBDPBD0DPAD@Z 10001550 f i api.obj
 0001:00000570       ??_E?$ctype@D@std@@MAEPAXI@Z 10001570 f i * CIL library *:* CIL module *
 0001:00000570       ??_G?$ctype@D@std@@MAEPAXI@Z 10001570 f i api.obj
 0001:000005c0       ?default_error_condition@error_category@std@@UBE?AVerror_condition@2@H@Z 100015c0 f i api.obj
 0001:000005d0       ?equivalent@error_category@std@@UBE_NHABVerror_condition@2@@Z 100015d0 f i api.obj
 0001:00000610       ?equivalent@error_category@std@@UBE_NABVerror_code@2@H@Z 10001610 f i api.obj
 0001:00000640       ?make_error_code@std@@YA?AVerror_code@1@W4io_errc@1@@Z 10001640 f i api.obj
 0001:00000670       ??0_System_error@std@@IAE@Verror_code@1@ABV?$basic_string@DU?$char_traits@D@std@@V?$allocator@D@2@@1@@Z 10001670 f i api.obj
 0001:000008e0       ??_G_System_error@std@@UAEPAXI@Z 100018e0 f i api.obj
 0001:000008e0       ??_E_System_error@std@@UAEPAXI@Z 100018e0 f i * CIL library *:* CIL module *
 0001:000008e0       ??_Efailure@ios_base@std@@UAEPAXI@Z 100018e0 f i * CIL library *:* CIL module *
 0001:000008e0       ??_Gfailure@ios_base@std@@UAEPAXI@Z 100018e0 f i api.obj
 0001:00000910       ?name@_Iostream_error_category@std@@UBEPBDXZ 10001910 f i api.obj
 0001:00000920       ?message@_Iostream_error_category@std@@UBE?AV?$basic_string@DU?$char_traits@D@std@@V?$allocator@D@2@@2@H@Z 10001920 f i api.obj
 0001:00000960       ??_E_Iostream_error_category@std@@UAEPAXI@Z 10001960 f i * CIL library *:* CIL module *
 0001:00000960       ??_G_Iostream_error_category@std@@UAEPAXI@Z 10001960 f i api.obj
 0001:00000980       ??0failure@ios_base@std@@QAE@PBDABVerror_code@2@@Z 10001980 f i api.obj
 0001:00000a10       ?clear@ios_base@std@@QAEXH_N@Z 10001a10 f i api.obj
 0001:00000a70       ??1Error@Napi@@QAE@XZ      10001a70 f i api.obj
 0001:00000ae0       ?Undefined@Env@Napi@@QBE?AVValue@2@XZ 10001ae0 f i api.obj
 0001:00000b70       ?ToNumber@Value@Napi@@QBE?AVNumber@2@XZ 10001b70 f i api.obj
 0001:00000c00       ?ToString@Value@Napi@@QBE?AVString@2@XZ 10001c00 f i api.obj
 0001:00000c90       ?New@Number@Napi@@SA?AV12@PAUnapi_env__@@N@Z 10001c90 f i api.obj
 0001:00000d20       ?Int32Value@Number@Napi@@QBEHXZ 10001d20 f i api.obj
 0001:00000d90       ?New@String@Napi@@SA?AV12@PAUnapi_env__@@ABV?$basic_string@DU?$char_traits@D@std@@V?$allocator@D@2@@std@@@Z 10001d90 f i api.obj
 0001:00000e20       ?New@String@Napi@@SA?AV12@PAUnapi_env__@@PBD@Z 10001e20 f i api.obj
 0001:00000ec0       ?Utf8Value@String@Napi@@QBE?AV?$basic_string@DU?$char_traits@D@std@@V?$allocator@D@2@@std@@XZ 10001ec0 f i api.obj
 0001:00001030       ?Get@Object@Napi@@QBE?AVValue@2@PBD@Z 10002030 f i api.obj
 0001:000010c0       ?New@Error@Napi@@SA?AV12@PAUnapi_env__@@@Z 100020c0 f i api.obj
 0001:00001280       ?ThrowAsJavaScriptException@Error@Napi@@QBEXXZ 10002280 f i api.obj
 0001:00001360       ?New@TypeError@Napi@@SA?AV12@PAUnapi_env__@@PBD@Z 10002360 f i api.obj
 0001:00001470       ??ACallbackInfo@Napi@@QBE?BVValue@1@I@Z 10002470 f i api.obj
 0001:000014d0       ?getCharFromString@@YAPADV?$basic_string@DU?$char_traits@D@std@@V?$allocator@D@2@@std@@@Z 100024d0 f   api.obj
 0001:00001540       ?AskWrapper@api@@YA?AVValue@Napi@@ABVCallbackInfo@3@@Z 10002540 f   api.obj
 0001:00001d00       ?AskPlaybackWrapper@api@@YA?AVValue@Napi@@ABVCallbackInfo@3@@Z 10002d00 f   api.obj
 0001:000026b0       ?AvgEntryPriceWrapper@api@@YA?AVValue@Napi@@ABVCallbackInfo@3@@Z 100036b0 f   api.obj
 0001:00002920       ?AvgFillPriceWrapper@api@@YA?AVValue@Napi@@ABVCallbackInfo@3@@Z 10003920 f   api.obj
 0001:00002ae0       ?BidWrapper@api@@YA?AVValue@Napi@@ABVCallbackInfo@3@@Z 10003ae0 f   api.obj
 0001:000032a0       ?BidPlaybackWrapper@api@@YA?AVValue@Napi@@ABVCallbackInfo@3@@Z 100042a0 f   api.obj
 0001:00003c50       ?BuyingPowerWrapper@api@@YA?AVValue@Napi@@ABVCallbackInfo@3@@Z 10004c50 f   api.obj
 0001:00003dc0       ?CashValueWrapper@api@@YA?AVValue@Napi@@ABVCallbackInfo@3@@Z 10004dc0 f   api.obj
 0001:00003f30       ?ConfirmOrdersWrapper@api@@YA?AVValue@Napi@@ABVCallbackInfo@3@@Z 10004f30 f   api.obj
 0001:00004060       ?ConnectedWrapper@api@@YA?AVValue@Napi@@ABVCallbackInfo@3@@Z 10005060 f   api.obj
 0001:00004190       ?FilledWrapper@api@@YA?AVValue@Napi@@ABVCallbackInfo@3@@Z 10005190 f   api.obj
 0001:00004350       ?LastWrapper@api@@YA?AVValue@Napi@@ABVCallbackInfo@3@@Z 10005350 f   api.obj
 0001:00004b10       ?LastPlaybackWrapper@api@@YA?AVValue@Napi@@ABVCallbackInfo@3@@Z 10005b10 f   api.obj
 0001:000054c0       ?MarketDataWrapper@api@@YA?AVValue@Napi@@ABVCallbackInfo@3@@Z 100064c0 f   api.obj
 0001:00005a20       ?MarketPositionWrapper@api@@YA?AVValue@Napi@@ABVCallbackInfo@3@@Z 10006a20 f   api.obj
 0001:00005d10       ?NewOrderIdWrapper@api@@YA?AVValue@Napi@@ABVCallbackInfo@3@@Z 10006d10 f   api.obj
 0001:00005db0       ?OrderStatusWrapper@api@@YA?AVValue@Napi@@ABVCallbackInfo@3@@Z 10006db0 f   api.obj
 0001:00005f70       ?RealizedPnLWrapper@api@@YA?AVValue@Napi@@ABVCallbackInfo@3@@Z 10006f70 f   api.obj
 0001:000060e0       ?SetUpWrapper@api@@YA?AVValue@Napi@@ABVCallbackInfo@3@@Z 100070e0 f   api.obj
 0001:00006360       ?StopOrdersWrapper@api@@YA?AVValue@Napi@@ABVCallbackInfo@3@@Z 10007360 f   api.obj
 0001:00006520       ?StrategiesWrapper@api@@YA?AVValue@Napi@@ABVCallbackInfo@3@@Z 10007520 f   api.obj
 0001:000066b0       ?StrategyPositionWrapper@api@@YA?AVValue@Napi@@ABVCallbackInfo@3@@Z 100076b0 f   api.obj
 0001:000068d0       ?SubscribeMarketDataWrapper@api@@YA?AVValue@Napi@@ABVCallbackInfo@3@@Z 100078d0 f   api.obj
 0001:00006a40       ?TargetOrdersWrapper@api@@YA?AVValue@Napi@@ABVCallbackInfo@3@@Z 10007a40 f   api.obj
 0001:00006c00       ?TearDownWrapper@api@@YA?AVValue@Napi@@ABVCallbackInfo@3@@Z 10007c00 f   api.obj
 0001:00006c90       ?UnsubscribeMarketDataWrapper@api@@YA?AVValue@Napi@@ABVCallbackInfo@3@@Z 10007c90 f   api.obj
 0001:00006e00       ?Config@api@@YA?AVValue@Napi@@ABVCallbackInfo@3@@Z 10007e00 f   api.obj
 0001:00007180       ?Host@api@@YA?AVValue@Napi@@ABVCallbackInfo@3@@Z 10008180 f   api.obj
 0001:000072b0       ?Port@api@@YA?AVValue@Napi@@ABVCallbackInfo@3@@Z 100082b0 f   api.obj
 0001:00007440       ?Account@api@@YA?AVValue@Napi@@ABVCallbackInfo@3@@Z 10008440 f   api.obj
 0001:00007570       ?Instrument@api@@YA?AVValue@Napi@@ABVCallbackInfo@3@@Z 10008570 f   api.obj
 0001:000076a0       ?Init@api@@YA?AVObject@Napi@@VEnv@3@V23@@Z 100086a0 f   api.obj
 0001:00008050       ?reserve@?$basic_string@DU?$char_traits@D@std@@V?$allocator@D@2@@std@@QAEXI@Z 10009050 f i api.obj
 0001:000081d0       ?resize@?$basic_string@DU?$char_traits@D@std@@V?$allocator@D@2@@std@@QAEXID@Z 100091d0 f i api.obj
 0001:00008240       ??1?$basic_string@DU?$char_traits@D@std@@V?$allocator@D@2@@std@@QAE@XZ 10009240 f i api.obj
 0001:00008240       ?_Tidy_deallocate@?$basic_string@DU?$char_traits@D@std@@V?$allocator@D@2@@std@@QAEXXZ 10009240 f i api.obj
 0001:00008290       ??0?$basic_string@DU?$char_traits@D@std@@V?$allocator@D@2@@std@@QAE@QBD@Z 10009290 f i api.obj
 0001:000083d0       ?_Xran@?$_String_val@U?$_Simple_types@D@std@@@std@@SAXXZ 100093d0 f i api.obj
 0001:000083e0       ??$use_facet@V?$ctype@D@std@@@std@@YAABV?$ctype@D@0@ABVlocale@0@@Z 100093e0 f i api.obj
 0001:00008510       ??$New@P6A?AVValue@Napi@@ABVCallbackInfo@2@@Z@Function@Napi@@SA?AV01@PAUnapi_env__@@P6A?AVValue@1@ABVCallbackInfo@1@@ZPBDPAX@Z 10009510 f i api.obj
 0001:00008650       ??$_Reallocate_grow_by@V<lambda_c1b8c41cb4019640539cfd828748c4d4>@@ID@?$basic_string@DU?$char_traits@D@std@@V?$allocator@D@2@@std@@QAEAAV01@IV<lambda_c1b8c41cb4019640539cfd828748c4d4>@@ID@Z 10009650 f i api.obj
 0001:000087a0       ??$_Reallocate_grow_by@V<lambda_ab246b20b9526e2ef7792587e4298a77>@@PBDI@?$basic_string@DU?$char_traits@D@std@@V?$allocator@D@2@@std@@QAEAAV01@IV<lambda_ab246b20b9526e2ef7792587e4298a77>@@PBDI@Z 100097a0 f i api.obj
 0001:000088f0       ??$_Allocate@$07U_Default_allocate_traits@std@@$0A@@std@@YAPAXI@Z 100098f0 f i api.obj
 0001:00008940       ??$_Deallocate@$07$0A@@std@@YAXPAXI@Z 10009940 f i api.obj
 0001:00008980       ?Wrapper@?$CallbackData@P6A?AVValue@Napi@@ABVCallbackInfo@2@@ZV12@@details@Napi@@SAPAUnapi_value__@@PAUnapi_env__@@PAUnapi_callback_info__@@@Z 10009980 f i api.obj
 0001:00008ac0       ??1?$unique_ptr@V_Facet_base@std@@U?$default_delete@V_Facet_base@std@@@2@@std@@QAE@XZ 10009ac0 f i api.obj
 0001:00008ad0       ?_Xlen@?$basic_string@DU?$char_traits@D@std@@V?$allocator@D@2@@std@@SAXXZ 10009ad0 f i api.obj
 0001:00008ae0       ?_Calculate_growth@?$basic_string@DU?$char_traits@D@std@@V?$allocator@D@2@@std@@QBEII@Z 10009ae0 f i api.obj
 0001:00008b20       ??$_Immortalize_impl@V_Iostream_error_category@std@@@std@@YGHPAX0PAPAX@Z 10009b20 f i api.obj
 0001:00008b96       __imp_load__napi_module_register 10009b96 f   node:node.exe
 0001:00008ba0       __tailMerge_node_exe       10009ba0     node:node.exe
 0001:00008bb1       __imp_load__napi_create_function 10009bb1 f   node:node.exe
 0001:00008bbb       __imp_load__napi_open_handle_scope 10009bbb f   node:node.exe
 0001:00008bc5       __imp_load__napi_coerce_to_number 10009bc5 f   node:node.exe
 0001:00008bcf       __imp_load__napi_get_last_error_info 10009bcf f   node:node.exe
 0001:00008bd9       __imp_load__napi_create_error 10009bd9 f   node:node.exe
 0001:00008be3       __imp_load__napi_coerce_to_object 10009be3 f   node:node.exe
 0001:00008bed       __imp_load__napi_delete_reference 10009bed f   node:node.exe
 0001:00008bf7       __imp_load__napi_fatal_error 10009bf7 f   node:node.exe
 0001:00008c01       __imp_load__napi_is_exception_pending 10009c01 f   node:node.exe
 0001:00008c0b       __imp_load__napi_create_symbol 10009c0b f   node:node.exe
 0001:00008c15       __imp_load__napi_get_value_string_utf8 10009c15 f   node:node.exe
 0001:00008c1f       __imp_load__napi_coerce_to_string 10009c1f f   node:node.exe
 0001:00008c29       __imp_load__napi_create_type_error 10009c29 f   node:node.exe
 0001:00008c33       __imp_load__napi_create_external 10009c33 f   node:node.exe
 0001:00008c3d       __imp_load__napi_create_string_utf8 10009c3d f   node:node.exe
 0001:00008c47       __imp_load__napi_set_named_property 10009c47 f   node:node.exe
 0001:00008c51       __imp_load__napi_has_named_property 10009c51 f   node:node.exe
 0001:00008c5b       __imp_load__napi_get_named_property 10009c5b f   node:node.exe
 0001:00008c65       __imp_load__napi_define_properties 10009c65 f   node:node.exe
 0001:00008c6f       __imp_load__napi_typeof    10009c6f f   node:node.exe
 0001:00008c79       __imp_load__napi_throw     10009c79 f   node:node.exe
 0001:00008c83       __imp_load__napi_get_value_int32 10009c83 f   node:node.exe
 0001:00008c8d       __imp_load__napi_get_and_clear_last_exception 10009c8d f   node:node.exe
 0001:00008c97       __imp_load__napi_get_undefined 10009c97 f   node:node.exe
 0001:00008ca1       __imp_load__napi_get_cb_info 10009ca1 f   node:node.exe
 0001:00008cab       __imp_load__napi_get_value_double 10009cab f   node:node.exe
 0001:00008cb5       __imp_load__napi_create_reference 10009cb5 f   node:node.exe
 0001:00008cbf       __imp_load__napi_close_handle_scope 10009cbf f   node:node.exe
 0001:00008cc9       __imp_load__napi_create_double 10009cc9 f   node:node.exe
 0001:00008cd3       __imp_load__napi_get_reference_value 10009cd3 f   node:node.exe
 0001:00008cdd       ??0_Init_locks@std@@QAE@XZ 10009cdd f   libcpmt:xlock.obj
 0001:00008d0a       ??0_Lockit@std@@QAE@H@Z    10009d0a f   libcpmt:xlock.obj
 0001:00008d3b       ??1_Init_locks@std@@QAE@XZ 10009d3b f   libcpmt:xlock.obj
 0001:00008d62       ??1_Lockit@std@@QAE@XZ     10009d62 f   libcpmt:xlock.obj
 0001:00008d81       ??0exception@std@@QAE@ABV01@@Z 10009d81 f i libcpmt:xonce.obj
 0001:00008dad       ??0exception@std@@QAE@QBD@Z 10009dad f i libcpmt:xonce.obj
 0001:00008de2       ??_Eout_of_range@std@@UAEPAXI@Z 10009de2 f i libcpmt:xthrow.obj
 0001:00008de2       ??_Gbad_array_new_length@std@@UAEPAXI@Z 10009de2 f i LIBCMT:throw_bad_alloc.obj
 0001:00008de2       ??_Gexception@std@@UAEPAXI@Z 10009de2 f i libcpmt:xonce.obj
 0001:00008de2       ??_Elength_error@std@@UAEPAXI@Z 10009de2 f i libcpmt:xthrow.obj
 0001:00008de2       ??_Eexception@std@@UAEPAXI@Z 10009de2 f i libcpmt:xonce.obj
 0001:00008de2       ??_Gbad_alloc@std@@UAEPAXI@Z 10009de2 f i libcpmt:xthrow.obj
 0001:00008de2       ??_Gbad_cast@std@@UAEPAXI@Z 10009de2 f i libcpmt:cout.obj
 0001:00008de2       ??_Elogic_error@std@@UAEPAXI@Z 10009de2 f i libcpmt:xthrow.obj
 0001:00008de2       ??_Ebad_array_new_length@std@@UAEPAXI@Z 10009de2 f i LIBCMT:throw_bad_alloc.obj
 0001:00008de2       ??_Glogic_error@std@@UAEPAXI@Z 10009de2 f i libcpmt:xthrow.obj
 0001:00008de2       ??_Ebad_cast@std@@UAEPAXI@Z 10009de2 f i libcpmt:cout.obj
 0001:00008de2       ??_Ebad_alloc@std@@UAEPAXI@Z 10009de2 f i libcpmt:xthrow.obj
 0001:00008de2       ??_Gout_of_range@std@@UAEPAXI@Z 10009de2 f i libcpmt:xthrow.obj
 0001:00008de2       ??_Glength_error@std@@UAEPAXI@Z 10009de2 f i libcpmt:xthrow.obj
 0001:00008de2       ??_Ebad_exception@std@@UAEPAXI@Z 10009de2 f i libvcruntime:frame.obj
 0001:00008de2       ??_Gbad_exception@std@@UAEPAXI@Z 10009de2 f i libvcruntime:frame.obj
 0001:00008e0f       ?_Execute_once@std@@YAHAAUonce_flag@1@P6GHPAX1PAPAX@Z1@Z 10009e0f f   libcpmt:xonce.obj
 0001:00008e27       ?what@exception@std@@UBEPBDXZ 10009e27 f i libcpmt:xonce.obj
 0001:00008e34       ??$_Fgetc@D@std@@YA_NAADPAU_iobuf@@@Z 10009e34 f i libcpmt:cout.obj
 0001:00008e54       ??$_Fputc@D@std@@YA_NDPAU_iobuf@@@Z 10009e54 f i libcpmt:cout.obj
 0001:00008f12       ??$use_facet@V?$codecvt@DDU_Mbstatet@@@std@@@std@@YAABV?$codecvt@DDU_Mbstatet@@@0@ABVlocale@0@@Z 10009f12 f i libcpmt:cout.obj
 0001:00008fb8       ??0?$basic_ostream@DU?$char_traits@D@std@@@std@@QAE@PAV?$basic_streambuf@DU?$char_traits@D@std@@@1@_N@Z 10009fb8 f i libcpmt:cout.obj
 0001:0000901f       ??0?$basic_streambuf@DU?$char_traits@D@std@@@std@@IAE@XZ 1000a01f f i libcpmt:cout.obj
 0001:00009066       ??0?$fpos@U_Mbstatet@@@std@@QAE@U_Mbstatet@@_J@Z 1000a066 f i libcpmt:cout.obj
 0001:0000908e       ??0_Init_cout@std@@QAE@XZ  1000a08e f i libcpmt:cout.obj
 0001:000090e7       ??0bad_cast@std@@QAE@ABV01@@Z 1000a0e7 f i libcpmt:cout.obj
 0001:00009102       ??0bad_cast@std@@QAE@XZ    1000a102 f i libcpmt:cout.obj
 0001:0000911a       ??1?$basic_filebuf@DU?$char_traits@D@std@@@std@@UAE@XZ 1000a11a f i libcpmt:cout.obj
 0001:00009172       ??1?$basic_ios@DU?$char_traits@D@std@@@std@@UAE@XZ 1000a172 f i libcpmt:cout.obj
 0001:000091b2       ??1?$basic_streambuf@DU?$char_traits@D@std@@@std@@UAE@XZ 1000a1b2 f i libcpmt:cout.obj
 0001:000091d3       ??1bad_exception@std@@UAE@XZ 1000a1d3 f i libvcruntime:frame.obj
 0001:000091d3       ??1bad_cast@std@@UAE@XZ    1000a1d3 f i libcpmt:cout.obj
 0001:000091d3       ??1out_of_range@std@@UAE@XZ 1000a1d3 f i libcpmt:xthrow.obj
 0001:000091d3       ??1bad_alloc@std@@UAE@XZ   1000a1d3 f i libcpmt:xthrow.obj
 0001:000091d3       ??1bad_array_new_length@std@@UAE@XZ 1000a1d3 f i LIBCMT:throw_bad_alloc.obj
 0001:000091d3       ??1length_error@std@@UAE@XZ 1000a1d3 f i libcpmt:xthrow.obj
 0001:000091e4       ??_D?$basic_ostream@DU?$char_traits@D@std@@@std@@QAEXXZ 1000a1e4 f i libcpmt:cout.obj
 0001:00009242       ??_E?$basic_ostream@DU?$char_traits@D@std@@@std@@$4PPPPPPPM@A@AEPAXI@Z 1000a242 f i libcpmt:cout.obj
 0001:0000924a       ??_E?$basic_filebuf@DU?$char_traits@D@std@@@std@@UAEPAXI@Z 1000a24a f i libcpmt:cout.obj
 0001:0000924a       ??_G?$basic_filebuf@DU?$char_traits@D@std@@@std@@UAEPAXI@Z 1000a24a f i libcpmt:cout.obj
 0001:0000926c       ??_E?$basic_ios@DU?$char_traits@D@std@@@std@@UAEPAXI@Z 1000a26c f i libcpmt:cout.obj
 0001:0000926c       ??_G?$basic_ios@DU?$char_traits@D@std@@@std@@UAEPAXI@Z 1000a26c f i libcpmt:cout.obj
 0001:000092c4       ??_E?$basic_ostream@DU?$char_traits@D@std@@@std@@UAEPAXI@Z 1000a2c4 f i libcpmt:cout.obj
 0001:000092c4       ??_G?$basic_ostream@DU?$char_traits@D@std@@@std@@UAEPAXI@Z 1000a2c4 f i libcpmt:cout.obj
 0001:000092e9       ??_E?$basic_streambuf@DU?$char_traits@D@std@@@std@@UAEPAXI@Z 1000a2e9 f i libcpmt:cout.obj
 0001:000092e9       ??_G?$basic_streambuf@DU?$char_traits@D@std@@@std@@UAEPAXI@Z 1000a2e9 f i libcpmt:cout.obj
 0001:0000930b       ??_G?$codecvt@DDU_Mbstatet@@@std@@MAEPAXI@Z 1000a30b f i libcpmt:cout.obj
 0001:0000930b       ??_E?$codecvt@DDU_Mbstatet@@@std@@MAEPAXI@Z 1000a30b f i libcpmt:cout.obj
 0001:0000932e       ??_Eios_base@std@@UAEPAXI@Z 1000a32e f i libcpmt:cout.obj
 0001:0000932e       ??_Gios_base@std@@UAEPAXI@Z 1000a32e f i libcpmt:cout.obj
 0001:00009386       ?_Endwrite@?$basic_filebuf@DU?$char_traits@D@std@@@std@@IAE_NXZ 1000a386 f i libcpmt:cout.obj
 0001:00009436       ?_Getcat@?$codecvt@DDU_Mbstatet@@@std@@SAIPAPBVfacet@locale@2@PBV42@@Z 1000a436 f i libcpmt:cout.obj
 0001:0000949e       ?_Init@?$basic_filebuf@DU?$char_traits@D@std@@@std@@IAEXPAU_iobuf@@W4_Initfl@12@@Z 1000a49e f i libcpmt:cout.obj
 0001:0000951a       ?_Init@?$basic_streambuf@DU?$char_traits@D@std@@@std@@IAEXXZ 1000a51a f i libcpmt:cout.obj
 0001:0000955e       ?_Init@ios_base@std@@IAEXXZ 1000a55e f i libcpmt:cout.obj
 0001:000095c4       ?_Initcvt@?$basic_filebuf@DU?$char_traits@D@std@@@std@@IAEXABV?$codecvt@DDU_Mbstatet@@@2@@Z 1000a5c4 f i libcpmt:cout.obj
 0001:000095ef       ?_Lock@?$basic_filebuf@DU?$char_traits@D@std@@@std@@UAEXXZ 1000a5ef f i libcpmt:cout.obj
 0001:000095ff       ?_Reset_back@?$basic_filebuf@DU?$char_traits@D@std@@@std@@AAEXXZ 1000a5ff f i libcpmt:cout.obj
 0001:00009622       ?_Set_back@?$basic_filebuf@DU?$char_traits@D@std@@@std@@AAEXXZ 1000a622 f i libcpmt:cout.obj
 0001:00009658       ?_Unlock@?$basic_filebuf@DU?$char_traits@D@std@@@std@@UAEXXZ 1000a658 f i libcpmt:cout.obj
 0001:00009668       ?always_noconv@codecvt_base@std@@QBE_NXZ 1000a668 f i libcpmt:cout.obj
 0001:00009680       ?close@?$basic_filebuf@DU?$char_traits@D@std@@@std@@QAEPAV12@XZ 1000a680 f i libcpmt:cout.obj
 0001:000096df       ___acrt_uninitialize_command_line 1000a6df f i libucrt:argv_data.obj
 0001:000096df       ?do_always_noconv@?$codecvt@DDU_Mbstatet@@@std@@MBE_NXZ 1000a6df f i libcpmt:cout.obj
 0001:000096e2       ?do_encoding@codecvt_base@std@@MBEHXZ 1000a6e2 f i libcpmt:cout.obj
 0001:000096e2       __get_startup_argv_mode    1000a6e2 f i LIBCMT:argv_mode.obj
 0001:000096e2       ?do_max_length@codecvt_base@std@@MBEHXZ 1000a6e2 f i libcpmt:cout.obj
 0001:000096e6       ?do_in@?$codecvt@DDU_Mbstatet@@@std@@MBEHAAU_Mbstatet@@PBD1AAPBDPAD3AAPAD@Z 1000a6e6 f i libcpmt:cout.obj
 0001:000096e6       ?do_out@?$codecvt@DDU_Mbstatet@@@std@@MBEHAAU_Mbstatet@@PBD1AAPBDPAD3AAPAD@Z 1000a6e6 f i libcpmt:cout.obj
 0001:00009700       ?do_length@?$codecvt@DDU_Mbstatet@@@std@@MBEHAAU_Mbstatet@@PBD1I@Z 1000a700 f i libcpmt:cout.obj
 0001:00009718       ?do_unshift@?$codecvt@DDU_Mbstatet@@@std@@MBEHAAU_Mbstatet@@PAD1AAPAD@Z 1000a718 f i libcpmt:cout.obj
 0001:00009729       ?erase@?$basic_string@DU?$char_traits@D@std@@V?$allocator@D@2@@std@@QAEAAV12@II@Z 1000a729 f i libcpmt:cout.obj
 0001:00009774       ?imbue@?$basic_filebuf@DU?$char_traits@D@std@@@std@@MAEXABVlocale@2@@Z 1000a774 f i libcpmt:cout.obj
 0001:00009790       ?imbue@?$basic_streambuf@DU?$char_traits@D@std@@@std@@MAEXABVlocale@2@@Z 1000a790 f i libcpmt:cout.obj
 0001:00009793       ?init@?$basic_ios@DU?$char_traits@D@std@@@std@@IAEXPAV?$basic_streambuf@DU?$char_traits@D@std@@@2@_N@Z 1000a793 f i libcpmt:cout.obj
 0001:000097dc       ?overflow@?$basic_filebuf@DU?$char_traits@D@std@@@std@@MAEHH@Z 1000a7dc f i libcpmt:cout.obj
 0001:000098e4       ?pbackfail@?$basic_streambuf@DU?$char_traits@D@std@@@std@@MAEHH@Z 1000a8e4 f i libcpmt:cout.obj
 0001:000098e4       ?overflow@?$basic_streambuf@DU?$char_traits@D@std@@@std@@MAEHH@Z 1000a8e4 f i libcpmt:cout.obj
 0001:000098ea       ?pbackfail@?$basic_filebuf@DU?$char_traits@D@std@@@std@@MAEHH@Z 1000a8ea f i libcpmt:cout.obj
 0001:0000996c       ?push_back@?$basic_string@DU?$char_traits@D@std@@V?$allocator@D@2@@std@@QAEXD@Z 1000a96c f i libcpmt:cout.obj
 0001:000099a8       ?seekoff@?$basic_filebuf@DU?$char_traits@D@std@@@std@@MAE?AV?$fpos@U_Mbstatet@@@2@_JHH@Z 1000a9a8 f i libcpmt:cout.obj
 0001:00009a5e       ?seekoff@?$basic_streambuf@DU?$char_traits@D@std@@@std@@MAE?AV?$fpos@U_Mbstatet@@@2@_JHH@Z 1000aa5e f i libcpmt:cout.obj
 0001:00009a7d       ?seekpos@?$basic_filebuf@DU?$char_traits@D@std@@@std@@MAE?AV?$fpos@U_Mbstatet@@@2@V32@H@Z 1000aa7d f i libcpmt:cout.obj
 0001:00009b02       ?seekpos@?$basic_streambuf@DU?$char_traits@D@std@@@std@@MAE?AV?$fpos@U_Mbstatet@@@2@V32@H@Z 1000ab02 f i libcpmt:cout.obj
 0001:00009b21       ?setbuf@?$basic_filebuf@DU?$char_traits@D@std@@@std@@MAEPAV?$basic_streambuf@DU?$char_traits@D@std@@@2@PAD_J@Z 1000ab21 f i libcpmt:cout.obj
 0001:00009b6f       ?setbuf@?$basic_streambuf@DU?$char_traits@D@std@@@std@@MAEPAV12@PAD_J@Z 1000ab6f f i libcpmt:cout.obj
 0001:00009b74       ?showmanyc@?$basic_streambuf@DU?$char_traits@D@std@@@std@@MAE_JXZ 1000ab74 f i libcpmt:cout.obj
 0001:00009b79       ?sync@?$basic_filebuf@DU?$char_traits@D@std@@@std@@MAEHXZ 1000ab79 f i libcpmt:cout.obj
 0001:00009bb2       ?sync@?$basic_streambuf@DU?$char_traits@D@std@@@std@@MAEHXZ 1000abb2 f i libcpmt:cout.obj
 0001:00009bb5       ?uflow@?$basic_filebuf@DU?$char_traits@D@std@@@std@@MAEHXZ 1000abb5 f i libcpmt:cout.obj
 0001:00009d33       ?uflow@?$basic_streambuf@DU?$char_traits@D@std@@@std@@MAEHXZ 1000ad33 f i libcpmt:cout.obj
 0001:00009d66       ?underflow@?$basic_filebuf@DU?$char_traits@D@std@@@std@@MAEHXZ 1000ad66 f i libcpmt:cout.obj
 0001:00009db6       ?underflow@?$basic_streambuf@DU?$char_traits@D@std@@@std@@MAEHXZ 1000adb6 f i libcpmt:cout.obj
 0001:00009dba       ?widen@?$basic_ios@DU?$char_traits@D@std@@@std@@QBEDD@Z 1000adba f i libcpmt:cout.obj
 0001:00009e09       ?xsgetn@?$basic_filebuf@DU?$char_traits@D@std@@@std@@MAE_JPAD_J@Z 1000ae09 f i libcpmt:cout.obj
 0001:00009ef0       ?xsgetn@?$basic_streambuf@DU?$char_traits@D@std@@@std@@MAE_JPAD_J@Z 1000aef0 f i libcpmt:cout.obj
 0001:00009fcc       ?xsputn@?$basic_filebuf@DU?$char_traits@D@std@@@std@@MAE_JPBD_J@Z 1000afcc f i libcpmt:cout.obj
 0001:0000a0a0       ?xsputn@?$basic_streambuf@DU?$char_traits@D@std@@@std@@MAE_JPBD_J@Z 1000b0a0 f i libcpmt:cout.obj
 0001:0000a178       ??0_Locimp@locale@std@@AAE@_N@Z 1000b178 f i libcpmt:locale0.obj
 0001:0000a1b9       ??1_Fac_node@std@@QAE@XZ   1000b1b9 f i libcpmt:locale0.obj
 0001:0000a218       ??1_Fac_tidy_reg_t@std@@QAE@XZ 1000b218 f i libcpmt:locale0.obj
 0001:0000a23f       ??1_Locimp@locale@std@@MAE@XZ 1000b23f f i libcpmt:locale0.obj
 0001:0000a298       ??4?$_Yarn@D@std@@QAEAAV01@PBD@Z 1000b298 f i libcpmt:locale0.obj
 0001:0000a2ec       ??_E_Locimp@locale@std@@MAEPAXI@Z 1000b2ec f i libcpmt:locale0.obj
 0001:0000a2ec       ??_G_Locimp@locale@std@@MAEPAXI@Z 1000b2ec f i libcpmt:locale0.obj
 0001:0000a30e       ?_Facet_Register@std@@YAXPAV_Facet_base@1@@Z 1000b30e f   libcpmt:locale0.obj
 0001:0000a33a       ?_Getgloballocale@locale@std@@CAPAV_Locimp@12@XZ 1000b33a f   libcpmt:locale0.obj
 0001:0000a340       ?_Init@locale@std@@CAPAV_Locimp@12@_N@Z 1000b340 f   libcpmt:locale0.obj
 0001:0000a3d0       ?_Locimp_dtor@_Locimp@locale@std@@CAXPAV123@@Z 1000b3d0 f   libcpmt:locale0.obj
 0001:0000a447       ?_Locinfo_ctor@_Locinfo@std@@SAXPAV12@PBD@Z 1000b447 f   libcpmt:locale0.obj
 0001:0000a492       ?_Locinfo_dtor@_Locinfo@std@@SAXPAV12@@Z 1000b492 f   libcpmt:locale0.obj
 0001:0000a4ac       ?_New_Locimp@_Locimp@locale@std@@CAPAV123@_N@Z 1000b4ac f   libcpmt:locale0.obj
 0001:0000a4cf       ?_Setgloballocale@locale@std@@CAXPAX@Z 1000b4cf f   libcpmt:locale0.obj
 0001:0000a4f7       __Deletegloballocale       1000b4f7 f   libcpmt:locale0.obj
 0001:0000a55c       ??0bad_alloc@std@@QAE@ABV01@@Z 1000b55c f i libcpmt:xthrow.obj
 0001:0000a577       ??0bad_alloc@std@@QAE@XZ   1000b577 f i libcpmt:xthrow.obj
 0001:0000a58f       ??0length_error@std@@QAE@ABV01@@Z 1000b58f f i libcpmt:xthrow.obj
 0001:0000a5aa       ??0length_error@std@@QAE@PBD@Z 1000b5aa f i libcpmt:xthrow.obj
 0001:0000a5c9       ??0logic_error@std@@QAE@ABV01@@Z 1000b5c9 f i libcpmt:xthrow.obj
 0001:0000a5e4       ??0out_of_range@std@@QAE@ABV01@@Z 1000b5e4 f i libcpmt:xthrow.obj
 0001:0000a5ff       ??0out_of_range@std@@QAE@PBD@Z 1000b5ff f i libcpmt:xthrow.obj
 0001:0000a61e       ?_Xlength_error@std@@YAXPBD@Z 1000b61e f   libcpmt:xthrow.obj
 0001:0000a63e       ?_Xout_of_range@std@@YAXPBD@Z 1000b63e f   libcpmt:xthrow.obj
 0001:0000a65e       ?_Syserror_map@std@@YAPBDH@Z 1000b65e f   libcpmt:syserror.obj
 0001:0000a683       __Getctype                 1000b683 f   libcpmt:_tolower.obj
 0001:0000a6eb       __Tolower                  1000b6eb f   libcpmt:_tolower.obj
 0001:0000a7e9       __Toupper                  1000b7e9 f   libcpmt:_toupper.obj
 0001:0000a8e7       __Mtxdst                   1000b8e7 f   libcpmt:xmtx.obj
 0001:0000a8f5       __Mtxinit                  1000b8f5 f   libcpmt:xmtx.obj
 0001:0000a90c       __Mtxlock                  1000b90c f   libcpmt:xmtx.obj
 0001:0000a91a       __Mtxunlock                1000b91a f   libcpmt:xmtx.obj
 0001:0000acd2       ___crtInitOnceExecuteOnce  1000bcd2 f   libcpmt:winapisupp.obj
 0001:0000ad60       ___crtInitializeCriticalSectionEx 1000bd60 f   libcpmt:winapisupp.obj
 0001:0000ad99       ?_Addstd@ios_base@std@@SAXPAV12@@Z 1000bd99 f   libcpmt:ios.obj
 0001:0000ade5       ?_Callfns@ios_base@std@@AAEXW4event@12@@Z 1000bde5 f i libcpmt:ios.obj
 0001:0000ae18       ?_Ios_base_dtor@ios_base@std@@CAXPAV12@@Z 1000be18 f   libcpmt:ios.obj
 0001:0000ae58       ?_Tidy@ios_base@std@@AAEXXZ 1000be58 f i libcpmt:ios.obj
 0001:0000aea0       ??1_Init_atexit@@QAE@XZ    1000bea0 f i libcpmt:iosptrs.obj
 0001:0000af03       ?_Atexit@@YAXP6AXXZ@Z      1000bf03 f   libcpmt:iosptrs.obj
 0001:0000af31       ___crtLCMapStringA         1000bf31 f   libcpmt:StlLCMapStringA.obj
 0001:0000b106       __freea_crt                1000c106 f i libcpmt:StlLCMapStringA.obj
 0001:0000b124       _GetTableIndexFromLocaleName 1000c124 f   libcpmt:winapinls.obj
 0001:0000b172       ___crtDownlevelLocaleNameToLCID 1000c172 f   libcpmt:winapinls.obj
 0001:0000b19c       ___crtLCMapStringEx        1000c19c f   libcpmt:winapinls.obj
 0001:0000b1f3       ___wcsnicmp_ascii          1000c1f3 f   libcpmt:winapinls.obj
 0001:0000b25b       @__security_check_cookie@4 1000c25b f   LIBCMT:_secchk_.obj
 0001:0000b26c       ??_V@YAXPAX@Z              1000c26c f   LIBCMT:delete_array.obj
 0001:0000b271       ??2@YAPAXI@Z               1000c271 f   LIBCMT:new_scalar.obj
 0001:0000b2a1       ??3@YAXPAXI@Z              1000c2a1 f   LIBCMT:delete_scalar_size.obj
 0001:0000b2af       ??_U@YAPAXI@Z              1000c2af f   LIBCMT:new_array.obj
 0001:0000b5d8       __DllMainCRTStartup@12     1000c5d8 f   LIBCMT:dll_dllmain.obj
 0001:0000b5fb       ??$__crt_fast_encode_pointer@PAP6AXXZ@@YAPAP6AXXZQAP6AXXZ@Z 1000c5fb f i LIBCMT:utility.obj
 0001:0000b5fb       ??$__crt_fast_encode_pointer@PAX@@YAPAXQAX@Z 1000c5fb f i libvcruntime:winapi_downlevel.obj
 0001:0000b65c       ___scrt_acquire_startup_lock 1000c65c f   LIBCMT:utility.obj
 0001:0000b68e       ___scrt_dllmain_after_initialize_c 1000c68e f   LIBCMT:utility.obj
 0001:0000b6b9       ___scrt_dllmain_before_initialize_c 1000c6b9 f   LIBCMT:utility.obj
 0001:0000b6c7       ___scrt_dllmain_crt_thread_attach 1000c6c7 f   LIBCMT:utility.obj
 0001:0000b6e6       ___scrt_dllmain_crt_thread_detach 1000c6e6 f   LIBCMT:utility.obj
 0001:0000b6f3       ___scrt_dllmain_exception_filter 1000c6f3 f   LIBCMT:utility.obj
 0001:0000b727       ___scrt_dllmain_uninitialize_c 1000c727 f   LIBCMT:utility.obj
 0001:0000b74a       ___scrt_dllmain_uninitialize_critical 1000c74a f   LIBCMT:utility.obj
 0001:0000b757       ___scrt_initialize_crt     1000c757 f   LIBCMT:utility.obj
 0001:0000b790       ___scrt_initialize_onexit_tables 1000c790 f   LIBCMT:utility.obj
 0001:0000b835       ___scrt_is_nonwritable_in_current_image 1000c835 f   LIBCMT:utility.obj
 0001:0000b8c9       ___scrt_release_startup_lock 1000c8c9 f   LIBCMT:utility.obj
 0001:0000b8e6       ___scrt_uninitialize_crt   1000c8e6 f   LIBCMT:utility.obj
 0001:0000b90e       __onexit                   1000c90e f   LIBCMT:utility.obj
 0001:0000b949       _atexit                    1000c949 f   LIBCMT:utility.obj
 0001:0000b95e       __EH_epilog3               1000c95e f   LIBCMT:ehprolg3.obj
 0001:0000b973       __EH_epilog3_GS            1000c973 f   LIBCMT:ehprolg3.obj
 0001:0000b984       __EH_prolog3               1000c984 f   LIBCMT:ehprolg3.obj
 0001:0000b9b8       __EH_prolog3_GS            1000c9b8 f   LIBCMT:ehprolg3.obj
 0001:0000b9ef       __EH_prolog3_catch         1000c9ef f   LIBCMT:ehprolg3.obj
 0001:0000ba26       ??_Etype_info@@UAEPAXI@Z   1000ca26 f i LIBCMT:std_type_info_static.obj
 0001:0000ba26       ??_Gtype_info@@UAEPAXI@Z   1000ca26 f i LIBCMT:std_type_info_static.obj
 0001:0000ba50       __alloca_probe_16          1000ca50 f   LIBCMT:alloca16.obj
 0001:0000ba66       __alloca_probe_8           1000ca66     LIBCMT:alloca16.obj
 0001:0000ba80       __allmul                   1000ca80 f   LIBCMT:llmul.obj
 0001:0000bac0       __aulldiv                  1000cac0 f   LIBCMT:ulldiv.obj
 0001:0000bb28       ___raise_securityfailure   1000cb28 f   LIBCMT:gs_report.obj
 0001:0000bb50       ___report_gsfailure        1000cb50 f   LIBCMT:gs_report.obj
 0001:0000bc49       ___report_rangecheckfailure 1000cc49 f   LIBCMT:gs_report.obj
 0001:0000bc55       ___report_securityfailure  1000cc55 f   LIBCMT:gs_report.obj
 0001:0000bd23       ??3@YAXPAX@Z               1000cd23 f   LIBCMT:delete_scalar.obj
 0001:0000bd28       ??0bad_array_new_length@std@@QAE@ABV01@@Z 1000cd28 f i LIBCMT:throw_bad_alloc.obj
 0001:0000bd43       ??0bad_array_new_length@std@@QAE@XZ 1000cd43 f i LIBCMT:throw_bad_alloc.obj
 0001:0000bd5b       ?__scrt_throw_std_bad_alloc@@YAXXZ 1000cd5b f   LIBCMT:throw_bad_alloc.obj
 0001:0000bd78       ?__scrt_throw_std_bad_array_new_length@@YAXXZ 1000cd78 f   LIBCMT:throw_bad_alloc.obj
 0001:0000bde2       ___security_init_cookie    1000cde2 f   LIBCMT:gs_support.obj
 0001:0000be2d       _DllMain@12                1000ce2d f   LIBCMT:dll_dllmain_stub.obj
 0001:0000be33       ?__scrt_initialize_type_info@@YAXXZ 1000ce33 f   LIBCMT:tncleanup.obj
 0001:0000be3f       ?__scrt_uninitialize_type_info@@YAXXZ 1000ce3f f   LIBCMT:tncleanup.obj
 0001:0000be4b       ___local_stdio_scanf_options 1000ce4b f i LIBCMT:default_local_stdio_options.obj
 0001:0000be51       ___scrt_initialize_default_local_stdio_options 1000ce51 f   LIBCMT:default_local_stdio_options.obj
 0001:0000be6e       ___scrt_get_dyn_tls_init_callback 1000ce6e f   LIBCMT:dyn_tls_init.obj
 0001:0000be74       ___scrt_fastfail           1000ce74 f   LIBCMT:utility_desktop.obj
 0001:0000bf8e       __crt_debugger_hook        1000cf8e f   LIBCMT:utility_desktop.obj
 0001:0000bf96       __RTC_Initialize           1000cf96 f   LIBCMT:_initsect_.obj
 0001:0000bfc2       __RTC_Terminate            1000cfc2 f   LIBCMT:_initsect_.obj
 0001:0000bff0       __SEH_prolog4              1000cff0 f   LIBCMT:_sehprolg4_.obj
 0001:0000c036       __SEH_epilog4              1000d036 f   LIBCMT:_sehprolg4_.obj
 0001:0000c04b       ___isa_available_init      1000d04b f   LIBCMT:_cpu_disp_.obj
 0001:0000c1e2       ___scrt_is_ucrt_dll_in_use 1000d1e2 f   LIBCMT:ucrt_detection.obj
 0001:0000c1f0       __chkstk                   1000d1f0 f   LIBCMT:chkstk.obj
 0001:0000c1f0       __alloca_probe             1000d1f0 f   LIBCMT:chkstk.obj
 0001:0000c21d       __get_purecall_handler     1000d21d f   libvcruntime:purevirt.obj
 0001:0000c232       __purecall                 1000d232 f   libvcruntime:purevirt.obj
 0001:0000c24e       ___std_exception_copy      1000d24e f   libvcruntime:std_exception.obj
 0001:0000c2b1       ___std_exception_destroy   1000d2b1 f   libvcruntime:std_exception.obj
 0001:0000c2d0       __CxxThrowException@8      1000d2d0 f   libvcruntime:throw.obj
 0001:0000c33d       ?GetRangeOfTrysToCheck@__FrameHandler3@@SA?AU?$pair@Viterator@TryBlockMap@__FrameHandler3@@V123@@std@@AAVTryBlockMap@1@HH@Z 1000d33d f   libvcruntime:trnsctrl.obj
 0001:0000c3bf       ?_CallCatchBlock2@@YAPAXPAUEHRegistrationNode@@PBU_s_FuncInfo@@PAXHK@Z 1000d3bf f   libvcruntime:trnsctrl.obj
 0001:0000c41d       ?_CallSETranslator@@YAHPAUEHExceptionRecord@@PAUEHRegistrationNode@@PAX2PBU_s_FuncInfo@@H1@Z 1000d41d f   libvcruntime:trnsctrl.obj
 0001:0000c4f8       ?_JumpToContinuation@@YGXPAXPAUEHRegistrationNode@@@Z 1000d4f8 f   libvcruntime:trnsctrl.obj
 0001:0000c528       ?_UnwindNestedFrames@@YGXPAUEHRegistrationNode@@PAUEHExceptionRecord@@@Z 1000d528 f   libvcruntime:trnsctrl.obj
 0001:0000c57b       __CatchGuardHandler        1000d57b f   libvcruntime:trnsctrl.obj
 0001:0000c5ac       __CreateFrameInfo          1000d5ac f   libvcruntime:trnsctrl.obj
 0001:0000c5d0       __FindAndUnlinkFrame       1000d5d0 f   libvcruntime:trnsctrl.obj
 0001:0000c615       __TranslatorGuardHandler   1000d615 f   libvcruntime:trnsctrl.obj
 0001:0000c6b2       ___CxxFrameHandler3        1000d6b2 f   libvcruntime:trnsctrl.obj
 0001:0000c6f0       _memcpy                    1000d6f0 f   libvcruntime:memcpy.obj
 0001:0000cc70       _memmove                   1000dc70 f   libvcruntime:memmove.obj
 0001:0000d1f0       _memset                    1000e1f0 f   libvcruntime:memset.obj
 0001:0000d34a       ___DestructExceptionObject 1000e34a f   libvcruntime:ehhelpers.obj
 0001:0000d3ea       ?_CallMemberFunction0@@YGXQAX0@Z 1000e3ea f i libvcruntime:ehhelpers.obj
 0001:0000d3f7       __IsExceptionObjectToBeDestroyed 1000e3f7 f   libvcruntime:ehhelpers.obj
 0001:0000d41d       ___AdjustPointer           1000e41d f   libvcruntime:ehhelpers.obj
 0001:0000d442       ___FrameUnwindFilter       1000e442 f   libvcruntime:ehhelpers.obj
 0001:0000d487       ___std_terminate           1000e487 f   libvcruntime:ehhelpers.obj
 0001:0000d490       _memchr                    1000e490 f   libvcruntime:memchr.obj
 0001:0000d53d       _memcmp                    1000e53d f   libvcruntime:_memcmp_.obj
 0001:0000e530       __except_handler4          1000f530 f   libvcruntime:_chandler4_.obj
 0001:0000e687       ___vcrt_initialize         1000f687 f   libvcruntime:initialization.obj
 0001:0000e6b0       ___vcrt_thread_attach      1000f6b0 f   libvcruntime:initialization.obj
 0001:0000e6bb       ___vcrt_thread_detach      1000f6bb f   libvcruntime:initialization.obj
 0001:0000e6c6       ___vcrt_uninitialize       1000f6c6 f   libvcruntime:initialization.obj
 0001:0000e6e5       ___vcrt_uninitialize_critical 1000f6e5 f   libvcruntime:initialization.obj
 0001:0000e6ed       ___std_type_info_compare   1000f6ed f   libvcruntime:std_type_info.obj
 0001:0000e729       ___std_type_info_destroy_list 1000f729 f   libvcruntime:std_type_info.obj
 0001:0000e74c       ___vcrt_initialize_pure_virtual_call_handler 1000f74c f   libvcruntime:purevirt_data.obj
 0001:0000e757       ___vcrt_freefls@4          1000f757 f   libvcruntime:per_thread_data.obj
 0001:0000e773       ___vcrt_freeptd            1000f773 f   libvcruntime:per_thread_data.obj
 0001:0000e7a9       ___vcrt_getptd             1000f7a9 f   libvcruntime:per_thread_data.obj
 0001:0000e7b7       ___vcrt_getptd_noexit      1000f7b7 f   libvcruntime:per_thread_data.obj
 0001:0000e849       ___vcrt_initialize_ptd     1000f849 f   libvcruntime:per_thread_data.obj
 0001:0000e87c       ___vcrt_uninitialize_ptd   1000f87c f   libvcruntime:per_thread_data.obj
 0001:0000ef8e       ??$TypeMatchHelper@$$CBU_s_HandlerType@@@@YAHPBU_s_HandlerType@@PBU_s_CatchableType@@PBU_s_ThrowInfo@@@Z 1000ff8e f i libvcruntime:frame.obj
 0001:0000f01c       ??$__InternalCxxFrameHandler@V__FrameHandler3@@@@YA?AW4_EXCEPTION_DISPOSITION@@PAUEHExceptionRecord@@PAUEHRegistrationNode@@PAU_CONTEXT@@PAXPBU_s_FuncInfo@@H1E@Z 1001001c f i libvcruntime:frame.obj
 0001:0000f11e       ??0bad_exception@std@@QAE@ABV01@@Z 1001011e f i libvcruntime:frame.obj
 0001:0000f139       ??0bad_exception@std@@QAE@XZ 10010139 f i libvcruntime:frame.obj
 0001:0000f151       ??8type_info@@QBE_NABV0@@Z 10010151 f i libvcruntime:frame.obj
 0001:0000f3b8       ?FrameUnwindToEmptyState@__FrameHandler3@@SAXPAUEHRegistrationNode@@PAXPBU_s_FuncInfo@@@Z 100103b8 f   libvcruntime:frame.obj
 0001:0000f3d0       ?FrameUnwindToState@__FrameHandler3@@SAXPAUEHRegistrationNode@@PAXPBU_s_FuncInfo@@H@Z 100103d0 f   libvcruntime:frame.obj
 0001:0000f552       ?_CallMemberFunction1@@YGXQAX00@Z 10010552 f i libvcruntime:frame.obj
 0001:0000f562       ?_CallMemberFunction2@@YGXQAX00H@Z 10010562 f i libvcruntime:frame.obj
 0001:0000f575       ?getESTypes@__FrameHandler3@@SAPBU_s_ESTypeList@@PBU_s_FuncInfo@@@Z 10010575 f i libvcruntime:frame.obj
 0001:0000f580       __CallSettingFrame@12      10010580 f   libvcruntime:lowhelpr.obj
 0001:0000f5a7       __NLG_Return               100105a7     libvcruntime:lowhelpr.obj
 0001:0000f5cc       ___except_validate_context_record 100105cc f   libvcruntime:jbcxrval.obj
 0001:0000f5fc       ___except_validate_jump_buffer 100105fc f   libvcruntime:jbcxrval.obj
 0001:0000f630       __local_unwind4            10010630 f   libvcruntime:_exsup4_.obj
 0001:0000f708       __seh_longjmp_unwind4@4    10010708 f   libvcruntime:_exsup4_.obj
 0001:0000f730       @_EH4_CallFilterFunc@8     10010730 f   libvcruntime:_exsup4_.obj
 0001:0000f748       @_EH4_TransferToHandler@8  10010748 f   libvcruntime:_exsup4_.obj
 0001:0000f764       @_EH4_GlobalUnwind2@8      10010764 f   libvcruntime:_exsup4_.obj
 0001:0000f780       @_EH4_LocalUnwind@16       10010780 f   libvcruntime:_exsup4_.obj
 0001:0000f797       ___vcrt_initialize_locks   10010797 f   libvcruntime:locks.obj
 0001:0000f7d3       ___vcrt_uninitialize_locks 100107d3 f   libvcruntime:locks.obj
 0001:0000f935       ___vcrt_FlsAlloc           10010935 f   libvcruntime:winapi_downlevel.obj
 0001:0000f970       ___vcrt_FlsFree            10010970 f   libvcruntime:winapi_downlevel.obj
 0001:0000f9ab       ___vcrt_FlsGetValue        100109ab f   libvcruntime:winapi_downlevel.obj
 0001:0000f9e6       ___vcrt_FlsSetValue        100109e6 f   libvcruntime:winapi_downlevel.obj
 0001:0000fa24       ___vcrt_InitializeCriticalSectionEx 10010a24 f   libvcruntime:winapi_downlevel.obj
 0001:0000fa6b       ___vcrt_initialize_winapi_thunks 10010a6b f   libvcruntime:winapi_downlevel.obj
 0001:0000fa94       ___vcrt_uninitialize_winapi_thunks 10010a94 f   libvcruntime:winapi_downlevel.obj
 0001:0000fac6       _unexpected                10010ac6 f   libvcruntime:unexpected.obj
 0001:0000fae3       ?GetCurrentState@__FrameHandler3@@SAHPAUEHRegistrationNode@@PAXPBU_s_FuncInfo@@@Z 10010ae3 f   libvcruntime:ehstate.obj
 0001:0000fb00       ?SetState@__FrameHandler3@@SAXPAUEHRegistrationNode@@PBU_s_FuncInfo@@H@Z 10010b00 f   libvcruntime:ehstate.obj
 0001:0000fb10       __global_unwind2           10010b10 f   libvcruntime:_exsup_.obj
 0001:0000fb76       __local_unwind2            10010b76 f   libvcruntime:_exsup_.obj
 0001:0000fbfa       __abnormal_termination     10010bfa f   libvcruntime:_exsup_.obj
 0001:0000fc20       __NLG_Notify1              10010c20 f   libvcruntime:_exsup_.obj
 0001:0000fc2c       __NLG_Notify               10010c2c f   libvcruntime:_exsup_.obj
 0001:0000fc43       __NLG_Dispatch             10010c43     libvcruntime:_exsup_.obj
 0001:0000fc43       __NLG_Dispatch2            10010c43     libvcruntime:_exsup_.obj
 0001:0000fc4b       __NLG_Call                 10010c4b f   libvcruntime:_exsup_.obj
 0001:0000fc4d       __NLG_Return2              10010c4d     libvcruntime:_exsup_.obj
 0001:0000fc4e       _abort                     10010c4e f   libucrt:abort.obj
 0001:0000fc92       _calloc                    10010c92 f   libucrt:calloc.obj
 0001:0000fc9d       ___acrt_call_reportfault   10010c9d f   libucrt:invalid_parameter.obj
 0001:0000fdd8       ___acrt_initialize_invalid_parameter_handler 10010dd8 f   libucrt:invalid_parameter.obj
 0001:0000fde7       __invalid_parameter        10010de7 f   libucrt:invalid_parameter.obj
 0001:0000fe62       __invalid_parameter_noinfo 10010e62 f   libucrt:invalid_parameter.obj
 0001:0000fe72       __invalid_parameter_noinfo_noreturn 10010e72 f   libucrt:invalid_parameter.obj
 0001:0000fe8f       __invoke_watson            10010e8f f   libucrt:invalid_parameter.obj
 0001:0000fed0       _strcspn                   10010ed0 f   libucrt:strcspn.obj
 0001:0000ff16       ??0_LocaleUpdate@@QAE@QAU__crt_locale_pointers@@@Z 10010f16 f i libucrt:output.obj
 0001:0000ff99       ??1_LocaleUpdate@@QAE@XZ   10010f99 f i libucrt:output.obj
 0001:0000ffa9       _free                      10010fa9 f   libucrt:free.obj
 0001:0000ffc6       ___ascii_stricmp           10010fc6 f   libucrt:stricmp.obj
 0001:00010001       __stricmp                  10011001 f   libucrt:stricmp.obj
 0001:0001004a       __stricmp_l                1001104a f   libucrt:stricmp.obj
 0001:000100e4       ___acrt_initialize_locks   100110e4 f   libucrt:locks.obj
 0001:00010125       ___acrt_lock               10011125 f   libucrt:locks.obj
 0001:0001013c       ___acrt_uninitialize_locks 1001113c f   libucrt:locks.obj
 0001:0001016d       ___acrt_unlock             1001116d f   libucrt:locks.obj
 0001:00010184       __lock_locales             10011184 f   libucrt:locks.obj
 0001:00010192       __unlock_locales           10011192 f   libucrt:locks.obj
 0001:0001019b       _terminate                 1001119b f   libucrt:terminate.obj
 0001:000101d7       ___acrt_initialize_stdio   100111d7 f   libucrt:_file.obj
 0001:0001029f       ___acrt_iob_func           1001129f f   libucrt:_file.obj
 0001:000102af       ___acrt_uninitialize_stdio 100112af f   libucrt:_file.obj
 0001:000102fb       __get_stream_buffer_pointers 100112fb f   libucrt:_file.obj
 0001:00010341       __lock_file                10011341 f   libucrt:_file.obj
 0001:00010355       __unlock_file              10011355 f   libucrt:_file.obj
 0001:00010369       __fclose_nolock            10011369 f   libucrt:fclose.obj
 0001:000103df       _fclose                    100113df f   libucrt:fclose.obj
 0001:00010675       ___acrt_stdio_flush_nolock 10011675 f   libucrt:fflush.obj
 0001:000106d8       __fflush_nolock            100116d8 f   libucrt:fflush.obj
 0001:0001071f       __flushall                 1001171f f   libucrt:fflush.obj
 0001:00010728       _fflush                    10011728 f   libucrt:fflush.obj
 0001:0001077c       __fgetc_nolock             1001177c f   libucrt:fgetc.obj
 0001:000107b8       _fgetc                     100117b8 f   libucrt:fgetc.obj
 0001:000108b5       _fgetpos                   100118b5 f   libucrt:fgetpos.obj
 0001:00010910       __fputc_nolock             10011910 f   libucrt:fputc.obj
 0001:00010939       _fputc                     10011939 f   libucrt:fputc.obj
 0001:00010a38       __fread_nolock_s           10011a38 f   libucrt:fread.obj
 0001:00010c11       _fread                     10011c11 f   libucrt:fread.obj
 0001:00010c2e       _fread_s                   10011c2e f   libucrt:fread.obj
 0001:00010d42       _fsetpos                   10011d42 f   libucrt:fsetpos.obj
 0001:00010d7d       ?LongLongSub@@YAJ_J0PA_J@Z 10011d7d f i libucrt:fseek.obj
 0001:0001103f       __fseeki64                 1001203f f   libucrt:fseek.obj
 0001:000110f0       __fwrite_nolock            100120f0 f   libucrt:fwrite.obj
 0001:0001126b       _fwrite                    1001226b f   libucrt:fwrite.obj
 0001:000113ee       _setvbuf                   100123ee f   libucrt:setvbuf.obj
 0001:00011472       __ungetc_nolock            10012472 f   libucrt:ungetc.obj
 0001:00011568       _ungetc                    10012568 f   libucrt:ungetc.obj
 0001:000115d1       _malloc                    100125d1 f   libucrt:malloc.obj
 0001:00011835       _setlocale                 10012835 f   libucrt:setlocale.obj
 0001:0001186f       ___pctype_func             1001286f f   libucrt:ctype.obj
 0001:00011895       __chvalidchk_l             10012895 f i libucrt:_ctype.obj
 0001:000118bb       __ischartype_l             100128bb f i libucrt:_ctype.obj
 0001:000118ee       __islower_l                100128ee f i libucrt:_ctype.obj
 0001:00011926       __isupper_l                10012926 f i libucrt:_ctype.obj
 0001:0001195e       _islower                   1001295e f i libucrt:_ctype.obj
 0001:0001198c       _isupper                   1001298c f i libucrt:_ctype.obj
 0001:000119ba       __wcsdup                   100129ba f   libucrt:wcsdup.obj
 0001:00011a1b       ____lc_codepage_func       10012a1b f   libucrt:initctype.obj
 0001:00011a42       ____lc_locale_name_func    10012a42 f   libucrt:initctype.obj
 0001:00011a6b       ___acrt_locale_initialize_ctype 10012a6b f   libucrt:initctype.obj
 0001:00011e9f       ___acrt_errno_from_os_error 10012e9f f   libucrt:errno.obj
 0001:00011ee2       ___acrt_errno_map_os_error 10012ee2 f   libucrt:errno.obj
 0001:00011f05       ___doserrno                10012f05 f   libucrt:errno.obj
 0001:00011f18       __errno                    10012f18 f   libucrt:errno.obj
 0001:00011f2b       ?unget@?$c_string_character_source@_W@__crt_strtox@@QAEX_W@Z 10012f2b f i libucrt:strtod.obj
 0001:00011f59       ?validate@?$c_string_character_source@_W@__crt_strtox@@QBE_NXZ 10012f59 f i libucrt:strtod.obj
 0001:00011f80       __CIpow                    10012f80 f   libucrt:pow_impl.obj
 0001:00011fbb       __CIpow_default            10012fbb f   libucrt:pow_impl.obj
 0001:00011fd4       __pow_default              10012fd4     libucrt:pow_impl.obj
 0001:000121c9       ___strncnt                 100131c9 f   libucrt:strncnt.obj
 0001:000121e5       ?_deallocate@?$__crt_win32_buffer@_WU__crt_win32_buffer_internal_dynamic_resizing@@@@AAEXXZ 100131e5 f i libucrt:strftime.obj
 0001:000121ff       ?allocate@?$__crt_win32_buffer@DU__crt_win32_buffer_no_resizing@@@@QAEHI@Z 100131ff f i libucrt:strftime.obj
 0001:00012226       ?allocate@?$__crt_win32_buffer@_WU__crt_win32_buffer_internal_dynamic_resizing@@@@QAEHI@Z 10013226 f i libucrt:strftime.obj
 0001:00012265       ?allocate@__crt_win32_buffer_internal_dynamic_resizing@@SAHQAPAXIABV__crt_win32_buffer_empty_debug_info@@@Z 10013265 f i libucrt:strftime.obj
 0001:000123ea       __tolower_l                100133ea f   libucrt:tolower_toupper.obj
 0001:00012404       _wcscpy_s                  10013404 f   libucrt:wcscpy_s.obj
 0001:00012468       _wcsnlen                   10013468 f   libucrt:strnlen.obj
 0001:00012618       ___acrt_initialize_new_handler 10013618 f   libucrt:new_handler.obj
 0001:00012627       __callnewh                 10013627 f   libucrt:new_handler.obj
 0001:0001266b       __query_new_handler        1001366b f   libucrt:new_handler.obj
 0001:000126bd       __initterm                 100136bd f   libucrt:initterm.obj
 0001:00012719       __initterm_e               10013719 f   libucrt:initterm.obj
 0001:0001275e       __seh_filter_dll           1001375e f   libucrt:exception_filter.obj
 0001:0001277e       __seh_filter_exe           1001377e f   libucrt:exception_filter.obj
 0001:00012b6c       ___acrt_initialize_thread_local_exit_callback 10013b6c f   libucrt:exit.obj
 0001:00012b7b       __cexit                    10013b7b f   libucrt:exit.obj
 0001:00012b8a       __exit                     10013b8a f   libucrt:exit.obj
 0001:00012ba0       __is_c_termination_complete 10013ba0 f   libucrt:exit.obj
 0001:00012e57       ___acrt_allocate_buffer_for_argv 10013e57 f   libucrt:argv_parsing.obj
 0001:00012ea6       __configure_narrow_argv    10013ea6 f   libucrt:argv_parsing.obj
 0001:00013005       ??$uninitialize@A6AXAAPAPA_W@Z@?$dual_state_global@PAPA_W@__crt_state_management@@QAEXA6AXAAPAPA_W@Z@Z 10014005 f i libucrt:environment_initialization.obj
 0001:00013005       ??$uninitialize@A6AXAAPAPAD@Z@?$dual_state_global@PAPAD@__crt_state_management@@QAEXA6AXAAPAPAD@Z@Z 10014005 f i libucrt:environment_initialization.obj
 0001:0001307b       ___dcrt_uninitialize_environments_nolock 1001407b f   libucrt:environment_initialization.obj
 0001:000130b2       __initialize_narrow_environment 100140b2 f   libucrt:environment_initialization.obj
 0001:00013159       ??$__crt_fast_encode_pointer@P6AHXZ@@YAP6AHXZQ6AHXZ@Z 10014159 f i libucrt:onexit.obj
 0001:00013159       ??$__crt_fast_encode_pointer@P6GHPA_WKJ@Z@@YAP6GHPA_WKJ@ZQ6GH0KJ@Z@Z 10014159 f i libucrt:winapi_thunks.obj
 0001:000133dd       __crt_atexit               100143dd f   libucrt:onexit.obj
 0001:000133f3       __execute_onexit_table     100143f3 f   libucrt:onexit.obj
 0001:00013422       __initialize_onexit_table  10014422 f   libucrt:onexit.obj
 0001:0001345f       __register_onexit_function 1001445f f   libucrt:onexit.obj
 0001:000135a0       ___acrt_initialize         100145a0 f   libucrt:initialization.obj
 0001:000135b2       ___acrt_thread_attach      100145b2 f   libucrt:initialization.obj
 0001:000135bd       ___acrt_thread_detach      100145bd f   libucrt:initialization.obj
 0001:000135c5       ___acrt_uninitialize       100145c5 f   libucrt:initialization.obj
 0001:000135f5       ___acrt_uninitialize_critical 100145f5 f   libucrt:initialization.obj
 0001:00013607       _strcpy_s                  10014607 f   libucrt:strcpy_s.obj
 0001:00013661       _wcsncmp                   10014661 f   libucrt:wcsncmp.obj
 0001:0001369b       ??$is_overflow_condition@K@__crt_strtox@@YA_NIK@Z 1001469b f i libucrt:atox.obj
 0001:000136cc       ??$parse_integer@KV?$c_string_character_source@_W@__crt_strtox@@@__crt_strtox@@YAKQAU__crt_locale_pointers@@V?$c_string_character_source@_W@0@H_N@Z 100146cc f i libucrt:atox.obj
 0001:00013d0d       __wtol                     10014d0d f   libucrt:atox.obj
 0001:00013d40       _strncmp                   10014d40 f   libucrt:strncmp.obj
 0001:00013e7c       ___acrt_get_sigabrt_handler 10014e7c f   libucrt:signal.obj
 0001:00013ea5       ___acrt_initialize_signal_handlers 10014ea5 f   libucrt:signal.obj
 0001:00013ec3       ___fpecode                 10014ec3 f   libucrt:signal.obj
 0001:00013ecc       _raise                     10014ecc f   libucrt:signal.obj
 0001:000140ce       __calloc_base              100150ce f   libucrt:calloc_base.obj
 0001:00014445       ___acrt_freeptd            10015445 f   libucrt:per_thread_data.obj
 0001:00014471       ___acrt_getptd             10015471 f   libucrt:per_thread_data.obj
 0001:00014528       ___acrt_getptd_head        10015528 f   libucrt:per_thread_data.obj
 0001:000145c2       ___acrt_getptd_noexit      100155c2 f   libucrt:per_thread_data.obj
 0001:0001466f       ___acrt_initialize_ptd     1001566f f   libucrt:per_thread_data.obj
 0001:0001469b       ___acrt_uninitialize_ptd   1001569b f   libucrt:per_thread_data.obj
 0001:000146b5       __free_base                100156b5 f   libucrt:free_base.obj
 0001:000146ef       __malloc_base              100156ef f   libucrt:malloc_base.obj
 0001:0001473d       __mbtowc_l                 1001573d f   libucrt:mbtowc.obj
 0001:00014881       _mbtowc                    10015881 f   libucrt:mbtowc.obj
 0001:0001489b       ___acrt_update_locale_info 1001589b f   libucrt:locale_update.obj
 0001:000148c8       ___acrt_update_multibyte_info 100158c8 f   libucrt:locale_update.obj
 0001:000148f5       __fileno                   100158f5 f   libucrt:fileno.obj
 0001:0001491b       ___acrt_stdio_begin_temporary_buffering_nolock 1001591b f   libucrt:_sftbuf.obj
 0001:000149d0       ___acrt_stdio_end_temporary_buffering_nolock 100159d0 f   libucrt:_sftbuf.obj
 0001:00014c55       ___acrt_copy_locale_name   10015c55 f   libucrt:wsetlocale.obj
 0001:00014cbb       ___acrt_set_locale_changed 10015cbb f   libucrt:wsetlocale.obj
 0001:00014cc6       ___acrt_uninitialize_locale 10015cc6 f   libucrt:wsetlocale.obj
 0001:00014cef       ___lc_lctowcs              10015cef f   libucrt:wsetlocale.obj
 0001:00014d5f       ___lc_wcstolc              10015d5f f   libucrt:wsetlocale.obj
 0001:00014edb       __expandlocale             10015edb f   libucrt:wsetlocale.obj
 0001:000152b8       __wcscats                  100162b8 f   libucrt:wsetlocale.obj
 0001:000152f9       __wsetlocale               100162f9 f   libucrt:wsetlocale.obj
 0001:00015d3d       ___acrt_initialize_lowio   10016d3d f   libucrt:ioinit.obj
 0001:00015d93       ___acrt_uninitialize_lowio 10016d93 f   libucrt:ioinit.obj
 0001:00015dbf       __errcode                  10016dbf f   libucrt:fpexcept.obj
 0001:00015df3       __except1                  10016df3 f   libucrt:fpexcept.obj
 0001:00015ec1       __handle_exc               10016ec1 f   libucrt:fpexcept.obj
 0001:000160ae       __raise_exc                100170ae f   libucrt:fpexcept.obj
 0001:000160d1       __raise_exc_ex             100170d1 f   libucrt:fpexcept.obj
 0001:000163c7       __set_errno_from_matherr   100173c7 f   libucrt:fpexcept.obj
 0001:000163f6       __umatherr                 100173f6 f   libucrt:fpexcept.obj
 0001:00016498       __decomp                   10017498 f   libucrt:util.obj
 0001:00016576       __set_exp                  10017576 f   libucrt:util.obj
 0001:000165a5       __sptype                   100175a5 f   libucrt:util.obj
 0001:00016603       __clrfp                    10017603 f   libucrt:fpctrl.obj
 0001:00016616       __ctrlfp                   10017616 f   libucrt:fpctrl.obj
 0001:00016642       __set_statfp               10017642 f   libucrt:fpctrl.obj
 0001:0001669d       __statfp                   1001769d f   libucrt:fpctrl.obj
 0001:000169f8       ___acrt_AppPolicyGetProcessTerminationMethodInternal@4 100179f8 f   libucrt:winapi_thunks.obj
 0001:00016a4f       ___acrt_EnumSystemLocalesEx@16 10017a4f f   libucrt:winapi_thunks.obj
 0001:00016ab9       ___acrt_FlsAlloc@4         10017ab9 f   libucrt:winapi_thunks.obj
 0001:00016b0f       ___acrt_FlsFree@4          10017b0f f   libucrt:winapi_thunks.obj
 0001:00016b65       ___acrt_FlsGetValue@4      10017b65 f   libucrt:winapi_thunks.obj
 0001:00016bbb       ___acrt_FlsSetValue@8      10017bbb f   libucrt:winapi_thunks.obj
 0001:00016c14       ___acrt_GetLocaleInfoEx@16 10017c14 f   libucrt:winapi_thunks.obj
 0001:00016c6a       ___acrt_GetUserDefaultLocaleName@8 10017c6a f   libucrt:winapi_thunks.obj
 0001:00016cbd       ___acrt_InitializeCriticalSectionEx@12 10017cbd f   libucrt:winapi_thunks.obj
 0001:00016d1f       ___acrt_IsValidLocaleName@4 10017d1f f   libucrt:winapi_thunks.obj
 0001:00016d6e       ___acrt_LCIDToLocaleName@16 10017d6e f   libucrt:winapi_thunks.obj
 0001:00016dc4       ___acrt_LCMapStringEx@36   10017dc4 f   libucrt:winapi_thunks.obj
 0001:00016e38       ___acrt_LocaleNameToLCID@8 10017e38 f   libucrt:winapi_thunks.obj
 0001:00016e80       ___acrt_can_use_vista_locale_apis 10017e80 f   libucrt:winapi_thunks.obj
 0001:00016e8b       ___acrt_eagerly_load_locale_apis 10017e8b f   libucrt:winapi_thunks.obj
 0001:00016ec2       ___acrt_initialize_winapi_thunks 10017ec2 f   libucrt:winapi_thunks.obj
 0001:00016efe       ___acrt_uninitialize_winapi_thunks 10017efe f   libucrt:winapi_thunks.obj
 0001:00016f34       __fcloseall                10017f34 f   libucrt:closeall.obj
 0001:00016fd4       ___acrt_stdio_free_buffer_nolock 10017fd4 f   libucrt:_freebuf.obj
 0001:00017094       __close                    10018094 f   libucrt:close.obj
 0001:00017123       __close_nolock             10018123 f   libucrt:close.obj
 0001:000171bf       ?__acrt_stdio_free_stream@@YAXV__crt_stdio_stream@@@Z 100181bf f   libucrt:stream.obj
 0001:00017292       __commit                   10018292 f   libucrt:commit.obj
 0001:000178bc       __write                    100188bc f   libucrt:write.obj
 0001:000179a4       __write_nolock             100189a4 f   libucrt:write.obj
 0001:00017d39       ___acrt_stdio_refill_and_read_narrow_nolock 10018d39 f   libucrt:_filbuf.obj
 0001:0001831a       __ftelli64                 1001931a f   libucrt:ftell.obj
 0001:00018325       __ftelli64_nolock          10019325 f   libucrt:ftell.obj
 0001:0001850c       ___acrt_stdio_flush_and_write_narrow_nolock 1001950c f   libucrt:_flsbuf.obj
 0001:00018a21       __read                     10019a21 f   libucrt:read.obj
 0001:00018b2b       __read_nolock              10019b2b f   libucrt:read.obj
 0001:0001905d       __lseeki64                 1001a05d f   libucrt:lseek.obj
 0001:00019078       __lseeki64_nolock          1001a078 f   libucrt:lseek.obj
 0001:00019093       ___acrt_stdio_allocate_buffer_nolock 1001a093 f   libucrt:_getbuf.obj
 0001:00019291       __mbstowcs_l               1001a291 f   libucrt:mbstowcs.obj
 0001:0001929c       __mbstowcs_s_l             1001a29c f   libucrt:mbstowcs.obj
 0001:0001937e       _mbstowcs                  1001a37e f   libucrt:mbstowcs.obj
 0001:000193a8       _mbstowcs_s                1001a3a8 f   libucrt:mbstowcs.obj
 0001:00019671       __wcstombs_l               1001a671 f   libucrt:wcstombs.obj
 0001:0001967c       __wcstombs_s_l             1001a67c f   libucrt:wcstombs.obj
 0001:00019749       __isctype_l                1001a749 f   libucrt:isctype.obj
 0001:00019902       ___acrt_GetLocaleInfoA     1001a902 f   libucrt:getlocaleinfoa.obj
 0001:00019ab4       ___acrt_GetStringTypeA     1001aab4 f   libucrt:getstringtypea.obj
 0001:00019da5       ___acrt_LCMapStringA       1001ada5 f   libucrt:lcmapstringa.obj
 0001:00019df0       __realloc_base             1001adf0 f   libucrt:realloc_base.obj
 0001:00019e59       _iswctype                  1001ae59 f   libucrt:iswctype.obj
 0001:00019ec4       __fpclass                  1001aec4 f   libucrt:ieeemisc.obj
 0001:00019f68       ___acrt_initialize_sse2    1001af68 f   libucrt:mathfcns.obj
 0001:00019f80       __CIpow_pentium4           1001af80 f   libucrt:pow_pentium4.obj
 0001:00019f99       __pow_pentium4             1001af99     libucrt:pow_pentium4.obj
 0001:0001aac0       __fFEXP                    1001bac0 f   libucrt:87tran.obj
 0001:0001ab17       __rtinfpopse               1001bb17     libucrt:87tran.obj
 0001:0001ab19       __rtinfnpopse              1001bb19     libucrt:87tran.obj
 0001:0001ab29       __fFLN                     1001bb29     libucrt:87tran.obj
 0001:0001abde       __rtinfpop                 1001bbde     libucrt:87tran.obj
 0001:0001abe0       __rtinfnpop                1001bbe0     libucrt:87tran.obj
 0001:0001abf0       __rtforexpinf              1001bbf0 f   libucrt:87tran.obj
 0001:0001abfd       __ffexpm1                  1001bbfd     libucrt:87tran.obj
 0001:0001acb0       __trandisp1                1001bcb0 f   libucrt:87disp.obj
 0001:0001ad25       __trandisp2                1001bd25 f   libucrt:87disp.obj
 0001:0001adbf       __rttospopde               1001bdbf     libucrt:87disp.obj
 0001:0001adc4       __rttospop                 1001bdc4     libucrt:87disp.obj
 0001:0001add0       __rtnospop                 1001bdd0 f   libucrt:87disp.obj
 0001:0001ade0       __rttosnpop                1001bde0 f   libucrt:87disp.obj
 0001:0001ade1       __rtnospopde               1001bde1     libucrt:87disp.obj
 0001:0001ade8       __rtzeropop                1001bde8     libucrt:87disp.obj
 0001:0001adea       __rtzeronpop               1001bdea     libucrt:87disp.obj
 0001:0001adf0       __rtzerospop               1001bdf0 f   libucrt:87disp.obj
 0001:0001adfd       __rtonepop                 1001bdfd     libucrt:87disp.obj
 0001:0001ae00       __rtonenpop                1001be00 f   libucrt:87disp.obj
 0001:0001ae10       __tosnan1                  1001be10 f   libucrt:87disp.obj
 0001:0001ae40       __nosnan2                  1001be40 f   libucrt:87disp.obj
 0001:0001ae50       __tosnan2                  1001be50 f   libucrt:87disp.obj
 0001:0001ae80       __nan2                     1001be80 f   libucrt:87disp.obj
 0001:0001aec0       __rtindfpop                1001bec0 f   libucrt:87disp.obj
 0001:0001aec2       __rtindfnpop               1001bec2     libucrt:87disp.obj
 0001:0001aed3       __rttosnpopde              1001bed3     libucrt:87disp.obj
 0001:0001aee0       __rtatan2inf               1001bee0 f   libucrt:87disp.obj
 0001:0001aefd       __rtchsifneg               1001befd     libucrt:87disp.obj
 0001:0001af10       __startTwoArgErrorHandling 1001bf10 f   libucrt:genexcep.obj
 0001:0001af27       __startOneArgErrorHandling 1001bf27 f   libucrt:genexcep.obj
 0001:0001af70       __twoToTOS                 1001bf70 f   libucrt:common.obj
 0001:0001af85       __load_CW                  1001bf85 f   libucrt:common.obj
 0001:0001af9c       __convertTOStoQNaN         1001bf9c f   libucrt:common.obj
 0001:0001afb5       __fload_withFB             1001bfb5 f   libucrt:common.obj
 0001:0001aff8       __checkTOS_withFB          1001bff8 f   libucrt:common.obj
 0001:0001b00e       __fast_exit                1001c00e f   libucrt:common.obj
 0001:0001b01b       __math_exit                1001c01b f   libucrt:common.obj
 0001:0001b045       __check_overflow_exit      1001c045 f   libucrt:common.obj
 0001:0001b059       __check_range_exit         1001c059 f   libucrt:common.obj
 0001:0001b0fc       __d_inttype                1001c0fc f   libucrt:powhlp.obj
 0001:0001b166       __powhlp                   1001c166 f   libucrt:powhlp.obj
 0001:0001b291       ___acrt_MultiByteToWideChar 1001c291 f   libucrt:multibytetowidechar.obj
 0001:0001b30d       ___acrt_WideCharToMultiByte 1001c30d f   libucrt:widechartomultibyte.obj
 0001:0001b3ba       __wcsicmp                  1001c3ba f   libucrt:wcsicmp.obj
 0001:0001b448       __wcsicmp_l                1001c448 f   libucrt:wcsicmp.obj
 0001:0001b525       ___acrt_initialize_timeset 1001c525 f   libucrt:timeset.obj
 0001:0001b550       __isleadbyte_l             1001c550 f i libucrt:_wctype.obj
 0001:0001b589       ___acrt_get_process_end_policy 1001c589 f   libucrt:win_policies.obj
 0001:0001ba7f       ___acrt_expand_narrow_argv_wildcards 1001ca7f f   libucrt:argv_wildcards.obj
 0001:0001ba8a       ___acrt_GetModuleFileNameA 1001ca8a f   libucrt:getmodulefilenamea.obj
 0001:0001c035       ___acrt_initialize_multibyte 1001d035 f   libucrt:mbctype.obj
 0001:0001c07d       ___acrt_update_thread_multibyte_data 1001d07d f   libucrt:mbctype.obj
 0001:0001c090       __setmbcp_nolock           1001d090 f   libucrt:mbctype.obj
 0001:0001c2e4       __ismbblead                1001d2e4 f   libucrt:ismbbyte.obj
 0001:0001c2fc       ___acrt_initialize_command_line 1001d2fc f   libucrt:argv_data.obj
 0001:0001c34c       ___dcrt_get_narrow_environment_from_os 1001d34c f   libucrt:get_environment_from_os.obj
 0001:0001c3d2       __recalloc                 1001d3d2 f   libucrt:recalloc.obj
 0001:0001c3dd       __recalloc_base            1001d3dd f   libucrt:recalloc.obj
 0001:0001c44a       ___acrt_initialize_heap    1001d44a f   libucrt:heap_handle.obj
 0001:0001c45b       ___acrt_uninitialize_heap  1001d45b f   libucrt:heap_handle.obj
 0001:0001c465       ___acrt_execute_initializers 1001d465 f   libucrt:shared_initialization.obj
 0001:0001c4e8       ___acrt_execute_uninitializers 1001d4e8 f   libucrt:shared_initialization.obj
 0001:0001c530       ___acrt_has_user_matherr   1001d530 f   libucrt:matherr.obj
 0001:0001c548       ___acrt_initialize_user_matherr 1001d548 f   libucrt:matherr.obj
 0001:0001c557       ___acrt_invoke_user_matherr 1001d557 f   libucrt:matherr.obj
 0001:0001c5a0       __query_new_mode           1001d5a0 f   libucrt:new_mode.obj
 0001:0001c5a6       ___acrt_add_locale_ref     1001d5a6 f   libucrt:locale_refcounting.obj
 0001:0001c623       ___acrt_free_locale        1001d623 f   libucrt:locale_refcounting.obj
 0001:0001c76d       ___acrt_locale_add_lc_time_reference 1001d76d f   libucrt:locale_refcounting.obj
 0001:0001c796       ___acrt_locale_free_lc_time_if_unreferenced 1001d796 f   libucrt:locale_refcounting.obj
 0001:0001c7c6       ___acrt_locale_release_lc_time_reference 1001d7c6 f   libucrt:locale_refcounting.obj
 0001:0001c7ef       ___acrt_release_locale_ref 1001d7ef f   libucrt:locale_refcounting.obj
 0001:0001c870       ___acrt_update_thread_locale_data 1001d870 f   libucrt:locale_refcounting.obj
 0001:0001c8e7       __updatetlocinfoEx_nolock  1001d8e7 f   libucrt:locale_refcounting.obj
 0001:0001c963       ?__mbrtowc_utf8@__crt_mbstring@@YAIPA_WPBDIPAU_Mbstatet@@@Z 1001d963 f   libucrt:mbrtowc.obj
 0001:0001c9a5       ?__mbsrtowcs_utf8@__crt_mbstring@@YAIPA_WPAPBDIPAU_Mbstatet@@@Z 1001d9a5 f   libucrt:mbrtowc.obj
 0001:0001caa2       __isatty                   1001daa2 f   libucrt:isatty.obj
 0001:0001caf8       ___acrt_locale_free_monetary 1001daf8 f   libucrt:initmon.obj
 0001:0001cbf6       ___acrt_locale_initialize_monetary 1001dbf6 f   libucrt:initmon.obj
 0001:0001cfaf       ___acrt_locale_free_numeric 1001dfaf f   libucrt:initnum.obj
 0001:0001d018       ___acrt_locale_initialize_numeric 1001e018 f   libucrt:initnum.obj
 0001:0001d4df       ___acrt_locale_free_time   1001e4df f   libucrt:inittime.obj
 0001:0001d5c3       ___acrt_locale_initialize_time 1001e5c3 f   libucrt:inittime.obj
 0001:0001d63e       _wcscat_s                  1001e63e f   libucrt:wcscat_s.obj
 0001:0001d77f       _wcsncpy_s                 1001e77f f   libucrt:wcsncpy_s.obj
 0001:0001d78a       _wcscspn                   1001e78a f   libucrt:wcscspn.obj
 0001:0001d7e5       _wcspbrk                   1001e7e5 f   libucrt:wcspbrk.obj
 0001:0001df49       ___acrt_get_qualified_locale 1001ef49 f   libucrt:get_qualified_locale.obj
 0001:0001e8bb       ___acrt_get_qualified_locale_downlevel 1001f8bb f   libucrt:getqloc_downlevel.obj
 0001:0001eab2       ___acrt_lowio_create_handle_array 1001fab2 f   libucrt:osfinfo.obj
 0001:0001eb2c       ___acrt_lowio_destroy_handle_array 1001fb2c f   libucrt:osfinfo.obj
 0001:0001eb61       ___acrt_lowio_ensure_fh_exists 1001fb61 f   libucrt:osfinfo.obj
 0001:0001ebf5       ___acrt_lowio_lock_fh      1001fbf5 f   libucrt:osfinfo.obj
 0001:0001ec18       ___acrt_lowio_unlock_fh    1001fc18 f   libucrt:osfinfo.obj
 0001:0001ec3b       __free_osfhnd              1001fc3b f   libucrt:osfinfo.obj
 0001:0001eccc       __get_osfhandle            1001fccc f   libucrt:osfinfo.obj
 0001:0001edea       ___acrt_DownlevelLCIDToLocaleName 1001fdea f   libucrt:lcidtoname_downlevel.obj
 0001:0001ee94       ___acrt_DownlevelLocaleNameToLCID 1001fe94 f   libucrt:lcidtoname_downlevel.obj
 0001:0001eec0       __putwch_nolock            1001fec0 f   libucrt:putwch.obj
 0001:0001eef4       ?__wcsrtombs_utf8@__crt_mbstring@@YAIPADPAPB_WIPAU_Mbstatet@@@Z 1001fef4 f   libucrt:wcrtomb.obj
 0001:0001f0a4       _strncpy_s                 100200a4 f   libucrt:strncpy_s.obj
 0001:0001f0af       ___acrt_GetStringTypeW     100200af f   libucrt:getstringtypew.obj
 0001:0001f0c8       ___libm_error_support      100200c8 f   libucrt:libm_error.obj
 0001:0001f2e0       __87except                 100202e0 f   libucrt:87except.obj
 0001:0001f3ea       __frnd                     100203ea f   libucrt:frnd.obj
 0001:0001f400       __towlower_l               10020400 f   libucrt:towlower.obj
 0001:0001f510       _qsort                     10020510 f   libucrt:qsort.obj
 0001:0001f960       _strpbrk                   10020960 f   libucrt:strpbrk.obj
 0001:0001f9a0       ??$__acrt_convert_wcs_mbs@D_W$$A6AIPA_WPBDIPAU__crt_locale_pointers@@@ZU__crt_win32_buffer_internal_dynamic_resizing@@@@YAHQBDAAV?$__crt_win32_buffer@_WU__crt_win32_buffer_internal_dynamic_resizing@@@@A6AIPA_WPBDIPAU__crt_locale_pointers@@@Z4@Z 100209a0 f i libucrt:findfirstfileexa.obj
 0001:0001fa41       ??$__acrt_mbs_to_wcs@U__crt_win32_buffer_internal_dynamic_resizing@@@@YAHQBDAAV?$__crt_win32_buffer@_WU__crt_win32_buffer_internal_dynamic_resizing@@@@PAU__crt_locale_pointers@@@Z 10020a41 f i libucrt:findfirstfileexa.obj
 0001:0001fa5e       ___acrt_FindFirstFileExA   10020a5e f   libucrt:findfirstfileexa.obj
 0001:0001fac4       ??$__acrt_convert_wcs_mbs@_WD$$A6AIPADPB_WIPAU__crt_locale_pointers@@@ZU__crt_win32_buffer_no_resizing@@@@YAHQB_WAAV?$__crt_win32_buffer@DU__crt_win32_buffer_no_resizing@@@@A6AIPADPB_WIPAU__crt_locale_pointers@@@Z4@Z 10020ac4 f i libucrt:findnextfilea.obj
 0001:0001fb66       ?set_to_nullptr@?$__crt_win32_buffer@DU__crt_win32_buffer_no_resizing@@@@QAEXXZ 10020b66 f i libucrt:findnextfilea.obj
 0001:0001fb7a       ___acrt_FindNextFileA      10020b7a f   libucrt:findnextfilea.obj
 0001:0001fcbb       __mbsdec                   10020cbb f   libucrt:mbsdec.obj
 0001:0001fcd2       __mbsdec_l                 10020cd2 f   libucrt:mbsdec.obj
 0001:0001fd70       __msize                    10020d70 f   libucrt:msize.obj
 0001:0001fd7b       __msize_base               10020d7b f   libucrt:msize.obj
 0001:0001fdae       ?__mbrtoc32_utf8@__crt_mbstring@@YAIPA_UPBDIPAU_Mbstatet@@@Z 10020dae f   libucrt:mbrtoc32.obj
 0001:0001ff62       ?return_illegal_sequence@__crt_mbstring@@YAIPAU_Mbstatet@@@Z 10020f62 f i libucrt:mbrtoc32.obj
 0001:0001ffa0       __CIlog10                  10020fa0 f   libucrt:log10_impl.obj
 0001:0001ffdb       __CIlog10_default          10020fdb f   libucrt:log10_impl.obj
 0001:0001ffef       __log10_default            10020fef     libucrt:log10_impl.obj
 0001:000200b0       _ceil                      100210b0 f   libucrt:ceil_pentium4.obj
 0001:000200f0       __ceil_pentium4            100210f0 f   libucrt:ceil_pentium4.obj
 0001:000202eb       __itow_s                   100212eb f   libucrt:xtoa.obj
 0001:00020320       __wcsnicmp                 10021320 f   libucrt:wcsnicmp.obj
 0001:000203d1       __wcsnicmp_l               100213d1 f   libucrt:wcsnicmp.obj
 0001:000204ce       __query_app_type           100214ce f   libucrt:report_runtime_error.obj
 0001:000204f3       ___dcrt_lowio_ensure_console_output_initialized 100214f3 f   libucrt:initcon.obj
 0001:00020512       ___dcrt_terminate_console_output 10021512 f   libucrt:initcon.obj
 0001:00020529       ___dcrt_write_console      10021529 f   libucrt:initcon.obj
 0001:0002057e       ?__c16rtomb_utf8@__crt_mbstring@@YAIPAD_SPAU_Mbstatet@@@Z 1002157e f   libucrt:c16rtomb.obj
 0001:0002061c       ___acrt_LCMapStringW       1002161c f   libucrt:lcmapstringw.obj
 0001:00020660       __CIlog10_pentium4         10021660 f   libucrt:log10_pentium4.obj
 0001:00020678       __log10_pentium4           10021678     libucrt:log10_pentium4.obj
 0001:000208f0       __ceil_default             100218f0 f   libucrt:ceil.obj
 0001:000209a9       ?__c32rtomb_utf8@__crt_mbstring@@YAIPAD_UPAU_Mbstatet@@@Z 100219a9 f   libucrt:c32rtomb.obj
 0001:00020a58       _c32rtomb                  10021a58 f   libucrt:c32rtomb.obj
 0001:00020a70       ___ascii_strnicmp          10021a70 f   libucrt:_strnicm.obj
 0001:00020ad1       _IsProcessorFeaturePresent@4 10021ad1 f   kernel32:KERNEL32.dll
 0001:00020ad7       ?DloadAcquireSectionWriteAccess@@YGXXZ 10021ad7 f i DelayImp:delayhlp.obj
 0001:00020b0a       ?DloadGetSRWLockFunctionPointers@@YGEXZ 10021b0a f i DelayImp:delayhlp.obj
 0001:00020b7d       ?DloadLock@@YGXXZ          10021b7d f i DelayImp:delayhlp.obj
 0001:00020bbc       ?DloadMakePermanentImageCommit@@YGXPAXK@Z 10021bbc f i DelayImp:delayhlp.obj
 0001:00020c2b       ?DloadObtainSection@@YGPAXPAK0@Z 10021c2b f i DelayImp:delayhlp.obj
 0001:00020ca6       ?DloadProtectSection@@YGXKPAK@Z 10021ca6 f i DelayImp:delayhlp.obj
 0001:00020d14       ?DloadReleaseSectionWriteAccess@@YGXXZ 10021d14 f i DelayImp:delayhlp.obj
 0001:00020d4a       ?DloadUnlock@@YGXXZ        10021d4a f i DelayImp:delayhlp.obj
 0001:00020d76       ___delayLoadHelper2@8      10021d76 f   DelayImp:delayhlp.obj
 0001:00020ff0       __FindPESection            10021ff0 f   LIBCMT:pesect.obj
 0001:00021040       __IsNonwritableInCurrentImage 10022040 f   LIBCMT:pesect.obj
 0001:00021100       __ValidateImageBase        10022100 f   LIBCMT:pesect.obj
 0001:00021140       __aulldvrm                 10022140 f   LIBCMT:ulldvrm.obj
 0001:000211e0       __SEH_prolog4_GS           100221e0 f   LIBCMT:_sehprolg4gs_.obj
 0001:00021229       __SEH_epilog4_GS           10022229 f   LIBCMT:_sehprolg4gs_.obj
 0001:00021240       __allshl                   10022240 f   LIBCMT:llshl.obj
 0001:00021260       __aullshr                  10022260 f   LIBCMT:ullshr.obj
 0001:00021280       __alldvrm                  10022280 f   LIBCMT:lldvrm.obj
 0001:00021360       __alldiv                   10022360 f   LIBCMT:lldiv.obj
 0001:00021410       __ftol2_sse                10022410 f   LIBCMT:_ftol2_.obj
 0001:00021419       __ftol2_pentium4           10022419 f   LIBCMT:_ftol2_.obj
 0001:0002142c       __ftol2_sse_excpt          1002242c f   LIBCMT:_ftol2_.obj
 0001:00021450       __ftol2                    10022450 f   LIBCMT:_ftol2_.obj
 0001:000214d0       _strrchr                   100224d0 f   libvcruntime:strrchr.obj
 0001:00021610       _strchr                    10022610 f   libvcruntime:strchr.obj
 0001:0002167e       ___from_strstr_to_strchr   1002267e     libvcruntime:strchr.obj
 0001:0002173b       _wcschr                    1002273b f   libvcruntime:wcschr.obj
 0002:00000000       __imp__GetModuleHandleA@4  10023000     kernel32:KERNEL32.dll
 0002:00000004       __imp__VirtualQuery@12     10023004     kernel32:KERNEL32.dll
 0002:00000008       __imp__VirtualProtect@16   10023008     kernel32:KERNEL32.dll
 0002:0000000c       __imp__GetSystemInfo@4     1002300c     kernel32:KERNEL32.dll
 0002:00000010       __imp__WriteConsoleW@20    10023010     kernel32:KERNEL32.dll
 0002:00000014       __imp__CreateFileW@28      10023014     kernel32:KERNEL32.dll
 0002:00000018       __imp__HeapSize@12         10023018     kernel32:KERNEL32.dll
 0002:0000001c       __imp__SetStdHandle@8      1002301c     kernel32:KERNEL32.dll
 0002:00000020       __imp__GetProcessHeap@0    10023020     kernel32:KERNEL32.dll
 0002:00000024       __imp__FreeEnvironmentStringsW@4 10023024     kernel32:KERNEL32.dll
 0002:00000028       __imp__GetEnvironmentStringsW@0 10023028     kernel32:KERNEL32.dll
 0002:0000002c       __imp__GetCommandLineW@0   1002302c     kernel32:KERNEL32.dll
 0002:00000030       __imp__GetCommandLineA@0   10023030     kernel32:KERNEL32.dll
 0002:00000034       __imp__GetOEMCP@0          10023034     kernel32:KERNEL32.dll
 0002:00000038       __imp__GetACP@0            10023038     kernel32:KERNEL32.dll
 0002:0000003c       __imp__IsValidCodePage@4   1002303c     kernel32:KERNEL32.dll
 0002:00000040       __imp__FindNextFileW@8     10023040     kernel32:KERNEL32.dll
 0002:00000044       __imp__FindFirstFileExW@24 10023044     kernel32:KERNEL32.dll
 0002:00000048       __imp__FindClose@4         10023048     kernel32:KERNEL32.dll
 0002:0000004c       __imp__HeapReAlloc@16      1002304c     kernel32:KERNEL32.dll
 0002:00000050       __imp__SetFilePointerEx@20 10023050     kernel32:KERNEL32.dll
 0002:00000054       __imp__ReadConsoleW@20     10023054     kernel32:KERNEL32.dll
 0002:00000058       __imp__ReadFile@20         10023058     kernel32:KERNEL32.dll
 0002:0000005c       __imp__GetConsoleMode@8    1002305c     kernel32:KERNEL32.dll
 0002:00000060       __imp__GetConsoleCP@0      10023060     kernel32:KERNEL32.dll
 0002:00000064       __imp__WriteFile@20        10023064     kernel32:KERNEL32.dll
 0002:00000068       __imp__FlushFileBuffers@4  10023068     kernel32:KERNEL32.dll
 0002:0000006c       __imp__GetLastError@0      1002306c     kernel32:KERNEL32.dll
 0002:00000070       __imp__WideCharToMultiByte@32 10023070     kernel32:KERNEL32.dll
 0002:00000074       __imp__EnterCriticalSection@4 10023074     kernel32:KERNEL32.dll
 0002:00000078       __imp__LeaveCriticalSection@4 10023078     kernel32:KERNEL32.dll
 0002:0000007c       __imp__DeleteCriticalSection@4 1002307c     kernel32:KERNEL32.dll
 0002:00000080       __imp__SetLastError@4      10023080     kernel32:KERNEL32.dll
 0002:00000084       __imp__InitializeCriticalSectionAndSpinCount@8 10023084     kernel32:KERNEL32.dll
 0002:00000088       __imp__SwitchToThread@0    10023088     kernel32:KERNEL32.dll
 0002:0000008c       __imp__TlsAlloc@0          1002308c     kernel32:KERNEL32.dll
 0002:00000090       __imp__TlsGetValue@4       10023090     kernel32:KERNEL32.dll
 0002:00000094       __imp__TlsSetValue@8       10023094     kernel32:KERNEL32.dll
 0002:00000098       __imp__TlsFree@4           10023098     kernel32:KERNEL32.dll
 0002:0000009c       __imp__GetSystemTimeAsFileTime@4 1002309c     kernel32:KERNEL32.dll
 0002:000000a0       __imp__GetModuleHandleW@4  100230a0     kernel32:KERNEL32.dll
 0002:000000a4       __imp__GetProcAddress@8    100230a4     kernel32:KERNEL32.dll
 0002:000000a8       __imp__EncodePointer@4     100230a8     kernel32:KERNEL32.dll
 0002:000000ac       __imp__DecodePointer@4     100230ac     kernel32:KERNEL32.dll
 0002:000000b0       __imp__MultiByteToWideChar@24 100230b0     kernel32:KERNEL32.dll
 0002:000000b4       __imp__LCMapStringW@24     100230b4     kernel32:KERNEL32.dll
 0002:000000b8       __imp__GetLocaleInfoW@16   100230b8     kernel32:KERNEL32.dll
 0002:000000bc       __imp__GetStringTypeW@16   100230bc     kernel32:KERNEL32.dll
 0002:000000c0       __imp__GetCPInfo@8         100230c0     kernel32:KERNEL32.dll
 0002:000000c4       __imp__UnhandledExceptionFilter@4 100230c4     kernel32:KERNEL32.dll
 0002:000000c8       __imp__SetUnhandledExceptionFilter@4 100230c8     kernel32:KERNEL32.dll
 0002:000000cc       __imp__GetCurrentProcess@0 100230cc     kernel32:KERNEL32.dll
 0002:000000d0       __imp__TerminateProcess@8  100230d0     kernel32:KERNEL32.dll
 0002:000000d4       __imp__IsProcessorFeaturePresent@4 100230d4     kernel32:KERNEL32.dll
 0002:000000d8       __imp__QueryPerformanceCounter@4 100230d8     kernel32:KERNEL32.dll
 0002:000000dc       __imp__GetCurrentProcessId@0 100230dc     kernel32:KERNEL32.dll
 0002:000000e0       __imp__GetCurrentThreadId@0 100230e0     kernel32:KERNEL32.dll
 0002:000000e4       __imp__InitializeSListHead@4 100230e4     kernel32:KERNEL32.dll
 0002:000000e8       __imp__IsDebuggerPresent@0 100230e8     kernel32:KERNEL32.dll
 0002:000000ec       __imp__GetStartupInfoW@4   100230ec     kernel32:KERNEL32.dll
 0002:000000f0       __imp__RaiseException@16   100230f0     kernel32:KERNEL32.dll
 0002:000000f4       __imp__RtlUnwind@16        100230f4     kernel32:KERNEL32.dll
 0002:000000f8       __imp__InterlockedFlushSList@4 100230f8     kernel32:KERNEL32.dll
 0002:000000fc       __imp__FreeLibrary@4       100230fc     kernel32:KERNEL32.dll
 0002:00000100       __imp__LoadLibraryExW@12   10023100     kernel32:KERNEL32.dll
 0002:00000104       __imp__ExitProcess@4       10023104     kernel32:KERNEL32.dll
 0002:00000108       __imp__GetModuleHandleExW@12 10023108     kernel32:KERNEL32.dll
 0002:0000010c       __imp__GetModuleFileNameW@12 1002310c     kernel32:KERNEL32.dll
 0002:00000110       __imp__HeapAlloc@12        10023110     kernel32:KERNEL32.dll
 0002:00000114       __imp__HeapFree@12         10023114     kernel32:KERNEL32.dll
 0002:00000118       __imp__GetStdHandle@4      10023118     kernel32:KERNEL32.dll
 0002:0000011c       __imp__GetFileType@4       1002311c     kernel32:KERNEL32.dll
 0002:00000120       __imp__IsValidLocale@8     10023120     kernel32:KERNEL32.dll
 0002:00000124       __imp__GetUserDefaultLCID@0 10023124     kernel32:KERNEL32.dll
 0002:00000128       __imp__EnumSystemLocalesW@8 10023128     kernel32:KERNEL32.dll
 0002:0000012c       __imp__CloseHandle@4       1002312c     kernel32:KERNEL32.dll
 0002:00000130       __imp__LoadLibraryExA@12   10023130     kernel32:KERNEL32.dll
 0002:00000134       \177KERNEL32_NULL_THUNK_DATA 10023134     kernel32:KERNEL32.dll
 0002:00000138       __imp__Strategies@4        10023138     NtDirect:NtDirect.dll
 0002:0000013c       __imp__Last@16             1002313c     NtDirect:NtDirect.dll
 0002:00000140       __imp__CashValue@4         10023140     NtDirect:NtDirect.dll
 0002:00000144       __imp__TearDown@0          10023144     NtDirect:NtDirect.dll
 0002:00000148       __imp__AskPlayback@20      10023148     NtDirect:NtDirect.dll
 0002:0000014c       __imp__UnsubscribeMarketData@4 1002314c     NtDirect:NtDirect.dll
 0002:00000150       __imp__AvgEntryPrice@8     10023150     NtDirect:NtDirect.dll
 0002:00000154       __imp__BidPlayback@20      10023154     NtDirect:NtDirect.dll
 0002:00000158       __imp__Connected@4         10023158     NtDirect:NtDirect.dll
 0002:0000015c       __imp__BuyingPower@4       1002315c     NtDirect:NtDirect.dll
 0002:00000160       __imp__RealizedPnL@4       10023160     NtDirect:NtDirect.dll
 0002:00000164       __imp__SetUp@8             10023164     NtDirect:NtDirect.dll
 0002:00000168       __imp__ConfirmOrders@4     10023168     NtDirect:NtDirect.dll
 0002:0000016c       __imp__SubscribeMarketData@4 1002316c     NtDirect:NtDirect.dll
 0002:00000170       __imp__NewOrderId@0        10023170     NtDirect:NtDirect.dll
 0002:00000174       __imp__Ask@16              10023174     NtDirect:NtDirect.dll
 0002:00000178       __imp__Filled@4            10023178     NtDirect:NtDirect.dll
 0002:0000017c       __imp__OrderStatus@4       1002317c     NtDirect:NtDirect.dll
 0002:00000180       __imp__MarketData@8        10023180     NtDirect:NtDirect.dll
 0002:00000184       __imp__TargetOrders@4      10023184     NtDirect:NtDirect.dll
 0002:00000188       __imp__LastPlayback@20     10023188     NtDirect:NtDirect.dll
 0002:0000018c       __imp__MarketPosition@8    1002318c     NtDirect:NtDirect.dll
 0002:00000190       __imp__Bid@16              10023190     NtDirect:NtDirect.dll
 0002:00000194       __imp__AvgFillPrice@4      10023194     NtDirect:NtDirect.dll
 0002:00000198       __imp__StrategyPosition@4  10023198     NtDirect:NtDirect.dll
 0002:0000019c       __imp__StopOrders@4        1002319c     NtDirect:NtDirect.dll
 0002:000001a0       \177NtDirect_NULL_THUNK_DATA 100231a0     NtDirect:NtDirect.dll
 0002:000001a4       ___guard_check_icall_fptr  100231a4     LIBCMT:guard_support.obj
 0002:000001a8       ___xc_a                    100231a8     LIBCMT:initializers.obj
 0002:000001d0       __register_NTDirect32_     100231d0     main.obj
 0002:000001d4       ___xc_z                    100231d4     LIBCMT:initializers.obj
 0002:000001d8       ___xi_a                    100231d8     LIBCMT:initializers.obj
 0002:000001e0       ___acrt_stdio_initializer  100231e0     libucrt:stdio_initializer.obj
 0002:000001e4       ___acrt_tran_sse2_initializer 100231e4     libucrt:sse2_initializer.obj
 0002:000001e8       ___acrt_timeset_initializer 100231e8     libucrt:timeset_initializer.obj
 0002:000001ec       ___acrt_multibyte_initializer 100231ec     libucrt:multibyte_initializer.obj
 0002:000001f0       ___xi_z                    100231f0     LIBCMT:initializers.obj
 0002:000001f4       ___xp_a                    100231f4     LIBCMT:initializers.obj
 0002:000001f8       ___acrt_locale_terminator  100231f8     libucrt:locale_initializer.obj
 0002:000001fc       ___dcrt_console_output_terminator 100231fc     libucrt:console_output_initializer.obj
 0002:00000200       ___acrt_stdio_terminator   10023200     libucrt:stdio_initializer.obj
 0002:00000204       ___xp_z                    10023204     LIBCMT:initializers.obj
 0002:00000208       ___xt_a                    10023208     LIBCMT:initializers.obj
 0002:0000020c       ___xt_z                    1002320c     LIBCMT:initializers.obj
 0002:00000210       __sz_node_exe              10023210     node:node.exe
 0002:00000220       ??_7exception@std@@6B@     10023220     libcpmt:xonce.obj
 0002:00000228       ??_C@_0BC@EOODALEL@Unknown?5exception@ 10023228     libcpmt:xonce.obj
 0002:00000240       ??_7runtime_error@std@@6B@ 10023240     libcpmt:xonce.obj
 0002:0000024c       ??_7_System_error@std@@6B@ 1002324c     libcpmt:xonce.obj
 0002:00000254       ??_C@_0O@BFJCFAAK@unknown?5error@ 10023254     libcpmt:xonce.obj
 0002:00000268       ??_7bad_cast@std@@6B@      10023268     libcpmt:cout.obj
 0002:00000270       ??_C@_08EPJLHIJG@bad?5cast@ 10023270     libcpmt:cout.obj
 0002:00000280       ??_7_Facet_base@std@@6B@   10023280     libcpmt:cout.obj
 0002:00000290       ??_7?$ctype@D@std@@6B@     10023290     libcpmt:cout.obj
 0002:000002c0       ??_7_Iostream_error_category@std@@6B@ 100232c0     libcpmt:cout.obj
 0002:000002dc       ??_7failure@ios_base@std@@6B@ 100232dc     libcpmt:cout.obj
 0002:000002e8       ??_7ios_base@std@@6B@      100232e8     libcpmt:cout.obj
 0002:000002f0       ??_7?$basic_streambuf@DU?$char_traits@D@std@@@std@@6B@ 100232f0     libcpmt:cout.obj
 0002:00000330       ??_7?$basic_filebuf@DU?$char_traits@D@std@@@std@@6B@ 10023330     libcpmt:cout.obj
 0002:00000370       ??_7?$basic_ios@DU?$char_traits@D@std@@@std@@6B@ 10023370     libcpmt:cout.obj
 0002:00000378       ??_7?$basic_ostream@DU?$char_traits@D@std@@@std@@6B@ 10023378     libcpmt:cout.obj
 0002:0000037c       ??_8?$basic_ostream@DU?$char_traits@D@std@@@std@@7B@ 1002337c     libcpmt:cout.obj
 0002:00000388       ??_7?$codecvt@DDU_Mbstatet@@@std@@6B@ 10023388     libcpmt:cout.obj
 0002:000003b4       ??_7_Locimp@locale@std@@6B@ 100233b4     libcpmt:locale0.obj
 0002:000003c0       ??_C@_01NBENCBCI@?$CK@     100233c0     libcpmt:locale0.obj
 0002:000003c4       ??_C@_01GFHCPBMG@C@        100233c4     libcpmt:locale0.obj
 0002:000003cc       ??_7bad_alloc@std@@6B@     100233cc     libcpmt:xthrow.obj
 0002:000003d4       ??_C@_0P@GHFPNOJB@bad?5allocation@ 100233d4     libcpmt:xthrow.obj
 0002:000003e8       ??_7logic_error@std@@6B@   100233e8     libcpmt:xthrow.obj
 0002:000003f4       ??_7length_error@std@@6B@  100233f4     libcpmt:xthrow.obj
 0002:00000400       ??_7out_of_range@std@@6B@  10023400     libcpmt:xthrow.obj
 0002:000008e0       ??_C@_0BN@LKKBCCDB@address?5family?5not?5supported@ 100238e0     libcpmt:syserror.obj
 0002:00000900       ??_C@_0P@LDMLAFHI@address?5in?5use@ 10023900     libcpmt:syserror.obj
 0002:00000910       ??_C@_0BG@DHPCNBJB@address?5not?5available@ 10023910     libcpmt:syserror.obj
 0002:00000928       ??_C@_0BC@DFIBIBIL@already?5connected@ 10023928     libcpmt:syserror.obj
 0002:0000093c       ??_C@_0BH@CAKOHOMI@argument?5list?5too?5long@ 1002393c     libcpmt:syserror.obj
 0002:00000954       ??_C@_0BH@CGIMPKIM@argument?5out?5of?5domain@ 10023954     libcpmt:syserror.obj
 0002:0000096c       ??_C@_0M@KGHGGJGL@bad?5address@ 1002396c     libcpmt:syserror.obj
 0002:00000978       ??_C@_0BE@MPJPGCEO@bad?5file?5descriptor@ 10023978     libcpmt:syserror.obj
 0002:0000098c       ??_C@_0M@PMMIEFCP@bad?5message@ 1002398c     libcpmt:syserror.obj
 0002:00000998       ??_C@_0M@KPHOFDBE@broken?5pipe@ 10023998     libcpmt:syserror.obj
 0002:000009a4       ??_C@_0BD@MGNDDEGM@connection?5aborted@ 100239a4     libcpmt:syserror.obj
 0002:000009b8       ??_C@_0BP@KAIHPOGN@connection?5already?5in?5progress@ 100239b8     libcpmt:syserror.obj
 0002:000009d8       ??_C@_0BD@PJLIIJEL@connection?5refused@ 100239d8     libcpmt:syserror.obj
 0002:000009ec       ??_C@_0BB@IECNJNOI@connection?5reset@ 100239ec     libcpmt:syserror.obj
 0002:00000a00       ??_C@_0BC@PPHBOELF@cross?5device?5link@ 10023a00     libcpmt:syserror.obj
 0002:00000a14       ??_C@_0BN@KDMIFEIP@destination?5address?5required@ 10023a14     libcpmt:syserror.obj
 0002:00000a34       ??_C@_0BI@NGCEHDD@device?5or?5resource?5busy@ 10023a34     libcpmt:syserror.obj
 0002:00000a4c       ??_C@_0BE@JIDOCPHM@directory?5not?5empty@ 10023a4c     libcpmt:syserror.obj
 0002:00000a60       ??_C@_0BI@BNCLIGPB@executable?5format?5error@ 10023a60     libcpmt:syserror.obj
 0002:00000a78       ??_C@_0M@MIDIAGJP@file?5exists@ 10023a78     libcpmt:syserror.obj
 0002:00000a84       ??_C@_0P@DNAJLBJK@file?5too?5large@ 10023a84     libcpmt:syserror.obj
 0002:00000a94       ??_C@_0BC@EJHOMAAK@filename?5too?5long@ 10023a94     libcpmt:syserror.obj
 0002:00000aa8       ??_C@_0BH@KEFGLDAF@function?5not?5supported@ 10023aa8     libcpmt:syserror.obj
 0002:00000ac0       ??_C@_0BB@DHFDFGDM@host?5unreachable@ 10023ac0     libcpmt:syserror.obj
 0002:00000ad4       ??_C@_0BD@JPHBMONG@identifier?5removed@ 10023ad4     libcpmt:syserror.obj
 0002:00000ae8       ??_C@_0BG@CDNPAGJK@illegal?5byte?5sequence@ 10023ae8     libcpmt:syserror.obj
 0002:00000b00       ??_C@_0CD@BNPLBMNA@inappropriate?5io?5control?5operat@ 10023b00     libcpmt:syserror.obj
 0002:00000b24       ??_C@_0M@EGEKIIMP@interrupted@ 10023b24     libcpmt:syserror.obj
 0002:00000b30       ??_C@_0BB@FCMFBGOM@invalid?5argument@ 10023b30     libcpmt:syserror.obj
 0002:00000b44       ??_C@_0N@OHAFKDEK@invalid?5seek@ 10023b44     libcpmt:syserror.obj
 0002:00000b54       ??_C@_08GLNPIFBN@io?5error@ 10023b54     libcpmt:syserror.obj
 0002:00000b60       ??_C@_0P@FLLDBIDK@is?5a?5directory@ 10023b60     libcpmt:syserror.obj
 0002:00000b70       ??_C@_0N@IFLPBIOP@message?5size@ 10023b70     libcpmt:syserror.obj
 0002:00000b80       ??_C@_0N@KIIEAAIO@network?5down@ 10023b80     libcpmt:syserror.obj
 0002:00000b90       ??_C@_0O@FNPDBHEE@network?5reset@ 10023b90     libcpmt:syserror.obj
 0002:00000ba0       ??_C@_0BE@IFNCKGE@network?5unreachable@ 10023ba0     libcpmt:syserror.obj
 0002:00000bb4       ??_C@_0BA@PFFCAOFK@no?5buffer?5space@ 10023bb4     libcpmt:syserror.obj
 0002:00000bc4       ??_C@_0BB@IEPBLJHK@no?5child?5process@ 10023bc4     libcpmt:syserror.obj
 0002:00000bd8       ??_C@_07PLECNNKG@no?5link@ 10023bd8     libcpmt:syserror.obj
 0002:00000be0       ??_C@_0BC@NJECKMKE@no?5lock?5available@ 10023be0     libcpmt:syserror.obj
 0002:00000bf4       ??_C@_0BF@PBGGPKKE@no?5message?5available@ 10023bf4     libcpmt:syserror.obj
 0002:00000c0c       ??_C@_0L@EDOLMPAK@no?5message@ 10023c0c     libcpmt:syserror.obj
 0002:00000c18       ??_C@_0BD@EAMBFIDF@no?5protocol?5option@ 10023c18     libcpmt:syserror.obj
 0002:00000c2c       ??_C@_0BD@IJDJKDEA@no?5space?5on?5device@ 10023c2c     libcpmt:syserror.obj
 0002:00000c40       ??_C@_0BE@MKFDAFMP@no?5stream?5resources@ 10023c40     libcpmt:syserror.obj
 0002:00000c54       ??_C@_0BK@IMCPHCBI@no?5such?5device?5or?5address@ 10023c54     libcpmt:syserror.obj
 0002:00000c70       ??_C@_0P@FDINDDOK@no?5such?5device@ 10023c70     libcpmt:syserror.obj
 0002:00000c80       ??_C@_0BK@NDOCBPGE@no?5such?5file?5or?5directory@ 10023c80     libcpmt:syserror.obj
 0002:00000c9c       ??_C@_0BA@ENLPPKBN@no?5such?5process@ 10023c9c     libcpmt:syserror.obj
 0002:00000cac       ??_C@_0BA@DOCPFFJG@not?5a?5directory@ 10023cac     libcpmt:syserror.obj
 0002:00000cbc       ??_C@_0N@POEIPGGF@not?5a?5socket@ 10023cbc     libcpmt:syserror.obj
 0002:00000ccc       ??_C@_0N@LGAPMMPI@not?5a?5stream@ 10023ccc     libcpmt:syserror.obj
 0002:00000cdc       ??_C@_0O@GLMIBBEG@not?5connected@ 10023cdc     libcpmt:syserror.obj
 0002:00000cec       ??_C@_0BC@ENOOLCNF@not?5enough?5memory@ 10023cec     libcpmt:syserror.obj
 0002:00000d00       ??_C@_0O@NHEDABJP@not?5supported@ 10023d00     libcpmt:syserror.obj
 0002:00000d10       ??_C@_0BD@MOLBPMEA@operation?5canceled@ 10023d10     libcpmt:syserror.obj
 0002:00000d24       ??_C@_0BG@KDKHOPCO@operation?5in?5progress@ 10023d24     libcpmt:syserror.obj
 0002:00000d3c       ??_C@_0BI@OHIEJAAB@operation?5not?5permitted@ 10023d3c     libcpmt:syserror.obj
 0002:00000d54       ??_C@_0BI@LNEGIFLN@operation?5not?5supported@ 10023d54     libcpmt:syserror.obj
 0002:00000d6c       ??_C@_0BG@OEMDKMEE@operation?5would?5block@ 10023d6c     libcpmt:syserror.obj
 0002:00000d84       ??_C@_0L@BLPOFLNJ@owner?5dead@ 10023d84     libcpmt:syserror.obj
 0002:00000d90       ??_C@_0BC@CIJDGCDI@permission?5denied@ 10023d90     libcpmt:syserror.obj
 0002:00000da4       ??_C@_0P@FNPOCJBE@protocol?5error@ 10023da4     libcpmt:syserror.obj
 0002:00000db4       ??_C@_0BH@JPPPLHJB@protocol?5not?5supported@ 10023db4     libcpmt:syserror.obj
 0002:00000dcc       ??_C@_0BG@EICBIHDP@read?5only?5file?5system@ 10023dcc     libcpmt:syserror.obj
 0002:00000de4       ??_C@_0BO@BJBOMOEJ@resource?5deadlock?5would?5occur@ 10023de4     libcpmt:syserror.obj
 0002:00000e04       ??_C@_0BP@LKNGHENJ@resource?5unavailable?5try?5again@ 10023e04     libcpmt:syserror.obj
 0002:00000e24       ??_C@_0BE@GOIPJJHG@result?5out?5of?5range@ 10023e24     libcpmt:syserror.obj
 0002:00000e38       ??_C@_0BG@MPLKFPAE@state?5not?5recoverable@ 10023e38     libcpmt:syserror.obj
 0002:00000e50       ??_C@_0P@DIIFGFCG@stream?5timeout@ 10023e50     libcpmt:syserror.obj
 0002:00000e60       ??_C@_0P@IPFDMIFL@text?5file?5busy@ 10023e60     libcpmt:syserror.obj
 0002:00000e70       ??_C@_09KJPPMAOI@timed?5out@ 10023e70     libcpmt:syserror.obj
 0002:00000e7c       ??_C@_0BO@HACHBEKI@too?5many?5files?5open?5in?5system@ 10023e7c     libcpmt:syserror.obj
 0002:00000e9c       ??_C@_0BE@GHAFMPAH@too?5many?5files?5open@ 10023e9c     libcpmt:syserror.obj
 0002:00000eb0       ??_C@_0P@HCOMKFCC@too?5many?5links@ 10023eb0     libcpmt:syserror.obj
 0002:00000ec0       ??_C@_0BO@EFGOJEF@too?5many?5symbolic?5link?5levels@ 10023ec0     libcpmt:syserror.obj
 0002:00000ee0       ??_C@_0BA@KGKGOOJA@value?5too?5large@ 10023ee0     libcpmt:syserror.obj
 0002:00000ef0       ??_C@_0BE@MIEJDDNH@wrong?5protocol?5type@ 10023ef0     libcpmt:syserror.obj
 0002:00000f04       ??_C@_1BK@MGMFAEKH@?$AAk?$AAe?$AAr?$AAn?$AAe?$AAl?$AA3?$AA2?$AA?4?$AAd?$AAl?$AAl@ 10023f04     libcpmt:winapisupp.obj
 0002:00000f20       ??_C@_08KNHFBNJ@FlsAlloc@  10023f20     libcpmt:winapisupp.obj
 0002:00000f2c       ??_C@_07PEJMOBNF@FlsFree@  10023f2c     libcpmt:winapisupp.obj
 0002:00000f34       ??_C@_0M@GDNOONDI@FlsGetValue@ 10023f34     libcpmt:winapisupp.obj
 0002:00000f40       ??_C@_0M@JCPCPOEF@FlsSetValue@ 10023f40     libcpmt:winapisupp.obj
 0002:00000f4c       ??_C@_0BM@HCFOFFN@InitializeCriticalSectionEx@ 10023f4c     libcpmt:winapisupp.obj
 0002:00000f68       ??_C@_0BE@GPLMMCMH@InitOnceExecuteOnce@ 10023f68     libcpmt:winapisupp.obj
 0002:00000f7c       ??_C@_0P@DLHPPCNH@CreateEventExW@ 10023f7c     libcpmt:winapisupp.obj
 0002:00000f8c       ??_C@_0BB@MEFPJLHN@CreateSemaphoreW@ 10023f8c     libcpmt:winapisupp.obj
 0002:00000fa0       ??_C@_0BD@KIEEOEEH@CreateSemaphoreExW@ 10023fa0     libcpmt:winapisupp.obj
 0002:00000fb4       ??_C@_0BG@OGFAJCKC@CreateThreadpoolTimer@ 10023fb4     libcpmt:winapisupp.obj
 0002:00000fcc       ??_C@_0BD@LPLEMMDI@SetThreadpoolTimer@ 10023fcc     libcpmt:winapisupp.obj
 0002:00000fe0       ??_C@_0CA@FMNJENH@WaitForThreadpoolTimerCallbacks@ 10023fe0     libcpmt:winapisupp.obj
 0002:00001000       ??_C@_0BF@DCFCCNOC@CloseThreadpoolTimer@ 10024000     libcpmt:winapisupp.obj
 0002:00001018       ??_C@_0BF@FLABGKKM@CreateThreadpoolWait@ 10024018     libcpmt:winapisupp.obj
 0002:00001030       ??_C@_0BC@MGCOHNA@SetThreadpoolWait@ 10024030     libcpmt:winapisupp.obj
 0002:00001044       ??_C@_0BE@OCIOMIMP@CloseThreadpoolWait@ 10024044     libcpmt:winapisupp.obj
 0002:00001058       ??_C@_0BJ@LKGHFHBO@FlushProcessWriteBuffers@ 10024058     libcpmt:winapisupp.obj
 0002:00001074       ??_C@_0BP@KALKKPMO@FreeLibraryWhenCallbackReturns@ 10024074     libcpmt:winapisupp.obj
 0002:00001094       ??_C@_0BK@DFNBACLA@GetCurrentProcessorNumber@ 10024094     libcpmt:winapisupp.obj
 0002:000010b0       ??_C@_0BE@FKKLLFLM@CreateSymbolicLinkW@ 100240b0     libcpmt:winapisupp.obj
 0002:000010c4       ??_C@_0BE@JOGNEJCI@GetCurrentPackageId@ 100240c4     libcpmt:winapisupp.obj
 0002:000010d8       ??_C@_0P@CDHHOHKP@GetTickCount64@ 100240d8     libcpmt:winapisupp.obj
 0002:000010e8       ??_C@_0BN@NEEHBBPO@GetFileInformationByHandleEx@ 100240e8     libcpmt:winapisupp.obj
 0002:00001108       ??_C@_0BL@KBBHGKCM@SetFileInformationByHandle@ 10024108     libcpmt:winapisupp.obj
 0002:00001124       ??_C@_0BP@FPNJPEJC@GetSystemTimePreciseAsFileTime@ 10024124     libcpmt:winapisupp.obj
 0002:00001144       ??_C@_0BM@HLJJNPAH@InitializeConditionVariable@ 10024144     libcpmt:winapisupp.obj
 0002:00001160       ??_C@_0BG@BFNILBLN@WakeConditionVariable@ 10024160     libcpmt:winapisupp.obj
 0002:00001178       ??_C@_0BJ@PGPPEPCC@WakeAllConditionVariable@ 10024178     libcpmt:winapisupp.obj
 0002:00001194       ??_C@_0BJ@JEBJOJFJ@SleepConditionVariableCS@ 10024194     libcpmt:winapisupp.obj
 0002:000011b0       ??_C@_0BC@MMLHEBPB@InitializeSRWLock@ 100241b0     libcpmt:winapisupp.obj
 0002:000011c4       ??_C@_0BI@OMNLIJDB@AcquireSRWLockExclusive@ 100241c4     libcpmt:winapisupp.obj
 0002:000011dc       ??_C@_0BL@OGHFEMNA@TryAcquireSRWLockExclusive@ 100241dc     libcpmt:winapisupp.obj
 0002:000011f8       ??_C@_0BI@HMIEPCNJ@ReleaseSRWLockExclusive@ 100241f8     libcpmt:winapisupp.obj
 0002:00001210       ??_C@_0BK@LGACAGIC@SleepConditionVariableSRW@ 10024210     libcpmt:winapisupp.obj
 0002:0000122c       ??_C@_0BF@GGPHFPJA@CreateThreadpoolWork@ 1002422c     libcpmt:winapisupp.obj
 0002:00001244       ??_C@_0BF@NHDAIMMO@SubmitThreadpoolWork@ 10024244     libcpmt:winapisupp.obj
 0002:0000125c       ??_C@_0BE@NPHIPNPD@CloseThreadpoolWork@ 1002425c     libcpmt:winapisupp.obj
 0002:00001270       ??_C@_0BA@IHGNDAEB@CompareStringEx@ 10024270     libcpmt:winapisupp.obj
 0002:00001280       ??_C@_0BA@ONOKGCMP@GetLocaleInfoEx@ 10024280     libcpmt:winapisupp.obj
 0002:00001290       ??_C@_0O@KKBNKAPF@LCMapStringEx@ 10024290     libcpmt:winapisupp.obj
 0002:000012a0       ?_BADOFF@std@@3_JB         100242a0     libcpmt:ios.obj
 0002:000012a8       ??_C@_11LOCGONAA@@         100242a8     libcpmt:wlocale.obj
 0002:000012ac       ??_C@_01JOAMLHOP@?9@       100242ac     libcpmt:wlocale.obj
 0002:00002190       ??_C@_15EMKDOKLE@?$AAa?$AAr@ 10025190     libcpmt:winapinls.obj
 0002:00002198       ??_C@_15KNPADPLH@?$AAb?$AAg@ 10025198     libcpmt:winapinls.obj
 0002:000021a0       ??_C@_15EDMHLDMO@?$AAc?$AAa@ 100251a0     libcpmt:winapinls.obj
 0002:000021a8       ??_C@_1O@BPEAJADD@?$AAz?$AAh?$AA?9?$AAC?$AAH?$AAS@ 100251a8     libcpmt:winapinls.obj
 0002:000021b8       ??_C@_15LJNHCMNK@?$AAc?$AAs@ 100251b8     libcpmt:winapinls.obj
 0002:000021c0       ??_C@_15FOMCIDHG@?$AAd?$AAa@ 100251c0     libcpmt:winapinls.obj
 0002:000021c8       ??_C@_15NBKABECB@?$AAd?$AAe@ 100251c8     libcpmt:winapinls.obj
 0002:000021d0       ??_C@_15GHPEIIAO@?$AAe?$AAl@ 100251d0     libcpmt:winapinls.obj
 0002:000021d8       ??_C@_15MNPNEAIF@?$AAe?$AAn@ 100251d8     libcpmt:winapinls.obj
 0002:000021e0       ??_C@_15GPIOMPMH@?$AAe?$AAs@ 100251e0     libcpmt:winapinls.obj
 0002:000021e8       ??_C@_15NGLOAKJC@?$AAf?$AAi@ 100251e8     libcpmt:winapinls.obj
 0002:000021f0       ??_C@_15FBKGNKAM@?$AAf?$AAr@ 100251f0     libcpmt:winapinls.obj
 0002:000021f8       ??_C@_15KGGCNEFK@?$AAh?$AAe@ 100251f8     libcpmt:winapinls.obj
 0002:00002200       ??_C@_15PGHLIDMF@?$AAh?$AAu@ 10025200     libcpmt:winapinls.obj
 0002:00002208       ??_C@_15BIEMAPLM@?$AAi?$AAs@ 10025208     libcpmt:winapinls.obj
 0002:00002210       ??_C@_15IFJLDHAF@?$AAi?$AAt@ 10025210     libcpmt:winapinls.obj
 0002:00002218       ??_C@_15GEMIOCAG@?$AAj?$AAa@ 10025218     libcpmt:winapinls.obj
 0002:00002220       ??_C@_15EPELEGJA@?$AAk?$AAo@ 10025220     libcpmt:winapinls.obj
 0002:00002228       ??_C@_15NDDHIMN@?$AAn?$AAl@ 10025228     libcpmt:winapinls.obj
 0002:00002230       ??_C@_15BPIGNHCD@?$AAn?$AAo@ 10025230     libcpmt:winapinls.obj
 0002:00002238       ??_C@_15DEOPBLCG@?$AAp?$AAl@ 10025238     libcpmt:winapinls.obj
 0002:00002240       ??_C@_15KBECGEFG@?$AAp?$AAt@ 10025240     libcpmt:winapinls.obj
 0002:00002248       ??_C@_15GLJCBFMD@?$AAr?$AAo@ 10025248     libcpmt:winapinls.obj
 0002:00002250       ??_C@_15FEDGKCDI@?$AAr?$AAu@ 10025250     libcpmt:winapinls.obj
 0002:00002258       ??_C@_15GLKMLLHM@?$AAh?$AAr@ 10025258     libcpmt:winapinls.obj
 0002:00002260       ??_C@_15CPKMFBDB@?$AAs?$AAk@ 10025260     libcpmt:winapinls.obj
 0002:00002268       ??_C@_15BAAIOGMK@?$AAs?$AAq@ 10025268     libcpmt:winapinls.obj
 0002:00002270       ??_C@_15INNPNOHD@?$AAs?$AAv@ 10025270     libcpmt:winapinls.obj
 0002:00002278       ??_C@_15CABMMOGH@?$AAt?$AAh@ 10025278     libcpmt:winapinls.obj
 0002:00002280       ??_C@_15BPLIHJJM@?$AAt?$AAr@ 10025280     libcpmt:winapinls.obj
 0002:00002288       ??_C@_15NEOEKKDJ@?$AAu?$AAr@ 10025288     libcpmt:winapinls.obj
 0002:00002290       ??_C@_15NFICGAJK@?$AAi?$AAd@ 10025290     libcpmt:winapinls.obj
 0002:00002298       ??_C@_15PJPFLCCM@?$AAu?$AAk@ 10025298     libcpmt:winapinls.obj
 0002:000022a0       ??_C@_15HPJPHDM@?$AAb?$AAe@ 100252a0     libcpmt:winapinls.obj
 0002:000022a8       ??_C@_15LCHLGJII@?$AAs?$AAl@ 100252a8     libcpmt:winapinls.obj
 0002:000022b0       ??_C@_15PCFJPHHO@?$AAe?$AAt@ 100252b0     libcpmt:winapinls.obj
 0002:000022b8       ??_C@_15HPFPGODN@?$AAl?$AAv@ 100252b8     libcpmt:winapinls.obj
 0002:000022c0       ??_C@_15NFFGKGLG@?$AAl?$AAt@ 100252c0     libcpmt:winapinls.obj
 0002:000022c8       ??_C@_15BDAKCCHN@?$AAf?$AAa@ 100252c8     libcpmt:winapinls.obj
 0002:000022d0       ??_C@_15NFGIAIAJ@?$AAv?$AAi@ 100252d0     libcpmt:winapinls.obj
 0002:000022d8       ??_C@_15LMKNDMHN@?$AAh?$AAy@ 100252d8     libcpmt:winapinls.obj
 0002:000022e0       ??_C@_15IJBHMCFL@?$AAa?$AAz@ 100252e0     libcpmt:winapinls.obj
 0002:000022e8       ??_C@_15EKOFJABL@?$AAe?$AAu@ 100252e8     libcpmt:winapinls.obj
 0002:000022f0       ??_C@_15BGHADCNK@?$AAm?$AAk@ 100252f0     libcpmt:winapinls.obj
 0002:000022f8       ??_C@_15JDNICKHM@?$AAa?$AAf@ 100252f8     libcpmt:winapinls.obj
 0002:00002300       ??_C@_15KPJEDBKD@?$AAk?$AAa@ 10025300     libcpmt:winapinls.obj
 0002:00002308       ??_C@_15PDNFFFEO@?$AAf?$AAo@ 10025308     libcpmt:winapinls.obj
 0002:00002310       ??_C@_15OMLEGLOC@?$AAh?$AAi@ 10025310     libcpmt:winapinls.obj
 0002:00002318       ??_C@_15IDNNENKK@?$AAm?$AAs@ 10025318     libcpmt:winapinls.obj
 0002:00002320       ??_C@_15MACJNBMH@?$AAk?$AAk@ 10025320     libcpmt:winapinls.obj
 0002:00002328       ??_C@_15DKDJEOND@?$AAk?$AAy@ 10025328     libcpmt:winapinls.obj
 0002:00002330       ??_C@_15DFGDLJBG@?$AAs?$AAw@ 10025330     libcpmt:winapinls.obj
 0002:00002338       ??_C@_15BBFAICNG@?$AAu?$AAz@ 10025338     libcpmt:winapinls.obj
 0002:00002340       ??_C@_15DKNDCGEA@?$AAt?$AAt@ 10025340     libcpmt:winapinls.obj
 0002:00002348       ??_C@_15MGIFMDPL@?$AAp?$AAa@ 10025348     libcpmt:winapinls.obj
 0002:00002350       ??_C@_15HCNDBBA@?$AAg?$AAu@ 10025350     libcpmt:winapinls.obj
 0002:00002358       ??_C@_15FNBEIBON@?$AAt?$AAa@ 10025358     libcpmt:winapinls.obj
 0002:00002360       ??_C@_15NCHGBGLK@?$AAt?$AAe@ 10025360     libcpmt:winapinls.obj
 0002:00002368       ??_C@_15PHPHCBPF@?$AAk?$AAn@ 10025368     libcpmt:winapinls.obj
 0002:00002370       ??_C@_15DLGBCKMP@?$AAm?$AAr@ 10025370     libcpmt:winapinls.obj
 0002:00002378       ??_C@_15EABBLBFF@?$AAs?$AAa@ 10025378     libcpmt:winapinls.obj
 0002:00002380       ??_C@_15CBKOMCOI@?$AAm?$AAn@ 10025380     libcpmt:winapinls.obj
 0002:00002388       ??_C@_15CKDMCJAF@?$AAg?$AAl@ 10025388     libcpmt:winapinls.obj
 0002:00002390       ??_C@_17CNJFBPG@?$AAk?$AAo?$AAk@ 10025390     libcpmt:winapinls.obj
 0002:00002398       ??_C@_17FFBJICPL@?$AAs?$AAy?$AAr@ 10025398     libcpmt:winapinls.obj
 0002:000023a0       ??_C@_17KPNDCPAF@?$AAd?$AAi?$AAv@ 100253a0     libcpmt:winapinls.obj
 0002:000023a8       ??_C@_1M@OKAHONE@?$AAa?$AAr?$AA?9?$AAS?$AAA@ 100253a8     libcpmt:winapinls.obj
 0002:000023b4       ??_C@_1M@FFFIGIGK@?$AAb?$AAg?$AA?9?$AAB?$AAG@ 100253b4     libcpmt:winapinls.obj
 0002:000023c0       ??_C@_1M@BJNKEDC@?$AAc?$AAa?$AA?9?$AAE?$AAS@ 100253c0     libcpmt:winapinls.obj
 0002:000023cc       ??_C@_1M@CLNBBOPM@?$AAz?$AAh?$AA?9?$AAT?$AAW@ 100253cc     libcpmt:winapinls.obj
 0002:000023d8       ??_C@_1M@IJJHFJHA@?$AAc?$AAs?$AA?9?$AAC?$AAZ@ 100253d8     libcpmt:winapinls.obj
 0002:000023e4       ??_C@_1M@CLPEOBGI@?$AAd?$AAa?$AA?9?$AAD?$AAK@ 100253e4     libcpmt:winapinls.obj
 0002:000023f0       ??_C@_1M@MCMADGCB@?$AAd?$AAe?$AA?9?$AAD?$AAE@ 100253f0     libcpmt:winapinls.obj
 0002:000023fc       ??_C@_1M@OOCKEMAM@?$AAe?$AAl?$AA?9?$AAG?$AAR@ 100253fc     libcpmt:winapinls.obj
 0002:00002408       ??_C@_1M@BMHNFIME@?$AAe?$AAn?$AA?9?$AAU?$AAS@ 10025408     libcpmt:winapinls.obj
 0002:00002414       ??_C@_1M@DDNJFGID@?$AAf?$AAi?$AA?9?$AAF?$AAI@ 10025414     libcpmt:winapinls.obj
 0002:00002420       ??_C@_1M@GLIPPMAC@?$AAf?$AAr?$AA?9?$AAF?$AAR@ 10025420     libcpmt:winapinls.obj
 0002:0000242c       ??_C@_1M@GFMCHPE@?$AAh?$AAe?$AA?9?$AAI?$AAL@ 1002542c     libcpmt:winapinls.obj
 0002:00002438       ??_C@_1M@MHLPGNKM@?$AAh?$AAu?$AA?9?$AAH?$AAU@ 10025438     libcpmt:winapinls.obj
 0002:00002444       ??_C@_1M@LPDDNNPN@?$AAi?$AAs?$AA?9?$AAI?$AAS@ 10025444     libcpmt:winapinls.obj
 0002:00002450       ??_C@_1M@MADIPODN@?$AAi?$AAt?$AA?9?$AAI?$AAT@ 10025450     libcpmt:winapinls.obj
 0002:0000245c       ??_C@_1M@HPNHIDJI@?$AAj?$AAa?$AA?9?$AAJ?$AAP@ 1002545c     libcpmt:winapinls.obj
 0002:00002468       ??_C@_1M@JLOOOEGK@?$AAk?$AAo?$AA?9?$AAK?$AAR@ 10025468     libcpmt:winapinls.obj
 0002:00002474       ??_C@_1M@IHBJJGG@?$AAn?$AAl?$AA?9?$AAN?$AAL@ 10025474     libcpmt:winapinls.obj
 0002:00002480       ??_C@_1M@EANAGDL@?$AAn?$AAb?$AA?9?$AAN?$AAO@ 10025480     libcpmt:winapinls.obj
 0002:0000248c       ??_C@_1M@NEIEMEGP@?$AAp?$AAl?$AA?9?$AAP?$AAL@ 1002548c     libcpmt:winapinls.obj
 0002:00002498       ??_C@_1M@BOCFIGEP@?$AAp?$AAt?$AA?9?$AAB?$AAR@ 10025498     libcpmt:winapinls.obj
 0002:000024a4       ??_C@_1M@IMPFOPBG@?$AAr?$AAo?$AA?9?$AAR?$AAO@ 100254a4     libcpmt:winapinls.obj
 0002:000024b0       ??_C@_1M@IDNNEJMM@?$AAr?$AAu?$AA?9?$AAR?$AAU@ 100254b0     libcpmt:winapinls.obj
 0002:000024bc       ??_C@_1M@LILEEOGM@?$AAh?$AAr?$AA?9?$AAH?$AAR@ 100254bc     libcpmt:winapinls.obj
 0002:000024c8       ??_C@_1M@FKIFEHPB@?$AAs?$AAk?$AA?9?$AAS?$AAK@ 100254c8     libcpmt:winapinls.obj
 0002:000024d4       ??_C@_1M@LJMAMNPJ@?$AAs?$AAq?$AA?9?$AAA?$AAL@ 100254d4     libcpmt:winapinls.obj
 0002:000024e0       ??_C@_1M@GIAKDKJK@?$AAs?$AAv?$AA?9?$AAS?$AAE@ 100254e0     libcpmt:winapinls.obj
 0002:000024ec       ??_C@_1M@MKJKIKCL@?$AAt?$AAh?$AA?9?$AAT?$AAH@ 100254ec     libcpmt:winapinls.obj
 0002:000024f8       ??_C@_1M@MFLCCMPB@?$AAt?$AAr?$AA?9?$AAT?$AAR@ 100254f8     libcpmt:winapinls.obj
 0002:00002504       ??_C@_1M@OIJHDKJN@?$AAu?$AAr?$AA?9?$AAP?$AAK@ 10025504     libcpmt:winapinls.obj
 0002:00002510       ??_C@_1M@LHIPCIEK@?$AAi?$AAd?$AA?9?$AAI?$AAD@ 10025510     libcpmt:winapinls.obj
 0002:0000251c       ??_C@_1M@MFMOBGI@?$AAu?$AAk?$AA?9?$AAU?$AAA@ 1002551c     libcpmt:winapinls.obj
 0002:00002528       ??_C@_1M@OBGLJIPL@?$AAb?$AAe?$AA?9?$AAB?$AAY@ 10025528     libcpmt:winapinls.obj
 0002:00002534       ??_C@_1M@BCFAJEAD@?$AAs?$AAl?$AA?9?$AAS?$AAI@ 10025534     libcpmt:winapinls.obj
 0002:00002540       ??_C@_1M@FKFFEDDN@?$AAe?$AAt?$AA?9?$AAE?$AAE@ 10025540     libcpmt:winapinls.obj
 0002:0000254c       ??_C@_1M@KGKKAACI@?$AAl?$AAv?$AA?9?$AAL?$AAV@ 1002554c     libcpmt:winapinls.obj
 0002:00002558       ??_C@_1M@IFGBIJO@?$AAl?$AAt?$AA?9?$AAL?$AAT@ 10025558     libcpmt:winapinls.obj
 0002:00002564       ??_C@_1M@FGEAHEDM@?$AAf?$AAa?$AA?9?$AAI?$AAR@ 10025564     libcpmt:winapinls.obj
 0002:00002570       ??_C@_1M@KBMAIBFN@?$AAv?$AAi?$AA?9?$AAV?$AAN@ 10025570     libcpmt:winapinls.obj
 0002:0000257c       ??_C@_1M@GPCBKDJK@?$AAh?$AAy?$AA?9?$AAA?$AAM@ 1002557c     libcpmt:winapinls.obj
 0002:00002588       ??_C@_1BG@BECMDDJB@?$AAa?$AAz?$AA?9?$AAA?$AAZ?$AA?9?$AAL?$AAa?$AAt?$AAn@ 10025588     libcpmt:winapinls.obj
 0002:000025a0       ??_C@_1M@MAOFCAEA@?$AAe?$AAu?$AA?9?$AAE?$AAS@ 100255a0     libcpmt:winapinls.obj
 0002:000025ac       ??_C@_1M@IGHABKPI@?$AAm?$AAk?$AA?9?$AAM?$AAK@ 100255ac     libcpmt:winapinls.obj
 0002:000025b8       ??_C@_1M@IAIGNEJG@?$AAt?$AAn?$AA?9?$AAZ?$AAA@ 100255b8     libcpmt:winapinls.obj
 0002:000025c4       ??_C@_1M@IIJCOJFA@?$AAx?$AAh?$AA?9?$AAZ?$AAA@ 100255c4     libcpmt:winapinls.obj
 0002:000025d0       ??_C@_1M@LGPJHNJH@?$AAz?$AAu?$AA?9?$AAZ?$AAA@ 100255d0     libcpmt:winapinls.obj
 0002:000025dc       ??_C@_1M@HOKAOIO@?$AAa?$AAf?$AA?9?$AAZ?$AAA@ 100255dc     libcpmt:winapinls.obj
 0002:000025e8       ??_C@_1M@DPCLHLIE@?$AAk?$AAa?$AA?9?$AAG?$AAE@ 100255e8     libcpmt:winapinls.obj
 0002:000025f4       ??_C@_1M@BLKMHJBI@?$AAf?$AAo?$AA?9?$AAF?$AAO@ 100255f4     libcpmt:winapinls.obj
 0002:00002600       ??_C@_1M@LGGJAPPB@?$AAh?$AAi?$AA?9?$AAI?$AAN@ 10025600     libcpmt:winapinls.obj
 0002:0000260c       ??_C@_1M@FIKPIHFE@?$AAm?$AAt?$AA?9?$AAM?$AAT@ 1002560c     libcpmt:winapinls.obj
 0002:00002618       ??_C@_1M@HEGGPBFA@?$AAs?$AAe?$AA?9?$AAN?$AAO@ 10025618     libcpmt:winapinls.obj
 0002:00002624       ??_C@_1M@EIBJEEPA@?$AAm?$AAs?$AA?9?$AAM?$AAY@ 10025624     libcpmt:winapinls.obj
 0002:00002630       ??_C@_1M@FHLBGMPP@?$AAk?$AAk?$AA?9?$AAK?$AAZ@ 10025630     libcpmt:winapinls.obj
 0002:0000263c       ??_C@_1M@NGJJLCGI@?$AAk?$AAy?$AA?9?$AAK?$AAG@ 1002563c     libcpmt:winapinls.obj
 0002:00002648       ??_C@_1M@GIENNBFC@?$AAs?$AAw?$AA?9?$AAK?$AAE@ 10025648     libcpmt:winapinls.obj
 0002:00002654       ??_C@_1BG@NDGMJIMJ@?$AAu?$AAz?$AA?9?$AAU?$AAZ?$AA?9?$AAL?$AAa?$AAt?$AAn@ 10025654     libcpmt:winapinls.obj
 0002:0000266c       ??_C@_1M@IDCCIHBC@?$AAt?$AAt?$AA?9?$AAR?$AAU@ 1002566c     libcpmt:winapinls.obj
 0002:00002678       ??_C@_1M@LOICPMOJ@?$AAb?$AAn?$AA?9?$AAI?$AAN@ 10025678     libcpmt:winapinls.obj
 0002:00002684       ??_C@_1M@KPKKNEAH@?$AAp?$AAa?$AA?9?$AAI?$AAN@ 10025684     libcpmt:winapinls.obj
 0002:00002690       ??_C@_1M@PJGPPBOG@?$AAg?$AAu?$AA?9?$AAI?$AAN@ 10025690     libcpmt:winapinls.obj
 0002:0000269c       ??_C@_1M@KMKMOPHI@?$AAt?$AAa?$AA?9?$AAI?$AAN@ 1002569c     libcpmt:winapinls.obj
 0002:000026a8       ??_C@_1M@KFEHEPAC@?$AAt?$AAe?$AA?9?$AAI?$AAN@ 100256a8     libcpmt:winapinls.obj
 0002:000026b4       ??_C@_1M@CDCLMGHI@?$AAk?$AAn?$AA?9?$AAI?$AAN@ 100256b4     libcpmt:winapinls.obj
 0002:000026c0       ??_C@_1M@MIODLDKF@?$AAm?$AAl?$AA?9?$AAI?$AAN@ 100256c0     libcpmt:winapinls.obj
 0002:000026cc       ??_C@_1M@PBIEACPO@?$AAm?$AAr?$AA?9?$AAI?$AAN@ 100256cc     libcpmt:winapinls.obj
 0002:000026d8       ??_C@_1M@NIDEAGPH@?$AAs?$AAa?$AA?9?$AAI?$AAN@ 100256d8     libcpmt:winapinls.obj
 0002:000026e4       ??_C@_1M@FHIHCBIO@?$AAm?$AAn?$AA?9?$AAM?$AAN@ 100256e4     libcpmt:winapinls.obj
 0002:000026f0       ??_C@_1M@JAIJPENP@?$AAc?$AAy?$AA?9?$AAG?$AAB@ 100256f0     libcpmt:winapinls.obj
 0002:000026fc       ??_C@_1M@PHGFBEPN@?$AAg?$AAl?$AA?9?$AAE?$AAS@ 100256fc     libcpmt:winapinls.obj
 0002:00002708       ??_C@_1O@KPIPDNCP@?$AAk?$AAo?$AAk?$AA?9?$AAI?$AAN@ 10025708     libcpmt:winapinls.obj
 0002:00002718       ??_C@_1O@KNHJLDJA@?$AAs?$AAy?$AAr?$AA?9?$AAS?$AAY@ 10025718     libcpmt:winapinls.obj
 0002:00002728       ??_C@_1O@MKEKBLAH@?$AAd?$AAi?$AAv?$AA?9?$AAM?$AAV@ 10025728     libcpmt:winapinls.obj
 0002:00002738       ??_C@_1O@OHDCKDDF@?$AAq?$AAu?$AAz?$AA?9?$AAB?$AAO@ 10025738     libcpmt:winapinls.obj
 0002:00002748       ??_C@_1M@LEPJNLFD@?$AAn?$AAs?$AA?9?$AAZ?$AAA@ 10025748     libcpmt:winapinls.obj
 0002:00002754       ??_C@_1M@OMLEIIJB@?$AAm?$AAi?$AA?9?$AAN?$AAZ@ 10025754     libcpmt:winapinls.obj
 0002:00002760       ??_C@_1M@PMPEAILG@?$AAa?$AAr?$AA?9?$AAI?$AAQ@ 10025760     libcpmt:winapinls.obj
 0002:0000276c       ??_C@_1M@BIBDDEMK@?$AAz?$AAh?$AA?9?$AAC?$AAN@ 1002576c     libcpmt:winapinls.obj
 0002:00002778       ??_C@_1M@CNKPNOEE@?$AAd?$AAe?$AA?9?$AAC?$AAH@ 10025778     libcpmt:winapinls.obj
 0002:00002784       ??_C@_1M@LKMGMLKO@?$AAe?$AAn?$AA?9?$AAG?$AAB@ 10025784     libcpmt:winapinls.obj
 0002:00002790       ??_C@_1M@PGKJFFGL@?$AAe?$AAs?$AA?9?$AAM?$AAX@ 10025790     libcpmt:winapinls.obj
 0002:0000279c       ??_C@_1M@DNNANBDC@?$AAf?$AAr?$AA?9?$AAB?$AAE@ 1002579c     libcpmt:winapinls.obj
 0002:000027a8       ??_C@_1M@HLGMDFHM@?$AAi?$AAt?$AA?9?$AAC?$AAH@ 100257a8     libcpmt:winapinls.obj
 0002:000027b4       ??_C@_1M@CLLBGJH@?$AAn?$AAl?$AA?9?$AAB?$AAE@ 100257b4     libcpmt:winapinls.obj
 0002:000027c0       ??_C@_1M@BODBOGLF@?$AAn?$AAn?$AA?9?$AAN?$AAO@ 100257c0     libcpmt:winapinls.obj
 0002:000027cc       ??_C@_1M@HFFAHKAD@?$AAp?$AAt?$AA?9?$AAP?$AAT@ 100257cc     libcpmt:winapinls.obj
 0002:000027d8       ??_C@_1BG@LNOAKHIE@?$AAs?$AAr?$AA?9?$AAS?$AAP?$AA?9?$AAL?$AAa?$AAt?$AAn@ 100257d8     libcpmt:winapinls.obj
 0002:000027f0       ??_C@_1M@HBMHBGAK@?$AAs?$AAv?$AA?9?$AAF?$AAI@ 100257f0     libcpmt:winapinls.obj
 0002:000027fc       ??_C@_1BG@DGCJGJBE@?$AAa?$AAz?$AA?9?$AAA?$AAZ?$AA?9?$AAC?$AAy?$AAr?$AAl@ 100257fc     libcpmt:winapinls.obj
 0002:00002814       ??_C@_1M@KEJDAAHB@?$AAs?$AAe?$AA?9?$AAS?$AAE@ 10025814     libcpmt:winapinls.obj
 0002:00002820       ??_C@_1M@HEIBJJAD@?$AAm?$AAs?$AA?9?$AAB?$AAN@ 10025820     libcpmt:winapinls.obj
 0002:0000282c       ??_C@_1BG@PBGJMCEM@?$AAu?$AAz?$AA?9?$AAU?$AAZ?$AA?9?$AAC?$AAy?$AAr?$AAl@ 1002582c     libcpmt:winapinls.obj
 0002:00002844       ??_C@_1O@LAOBCMDF@?$AAq?$AAu?$AAz?$AA?9?$AAE?$AAC@ 10025844     libcpmt:winapinls.obj
 0002:00002854       ??_C@_1M@POEEMAIO@?$AAa?$AAr?$AA?9?$AAE?$AAG@ 10025854     libcpmt:winapinls.obj
 0002:00002860       ??_C@_1M@EFAKDEDL@?$AAz?$AAh?$AA?9?$AAH?$AAK@ 10025860     libcpmt:winapinls.obj
 0002:0000286c       ??_C@_1M@HKKIJHGI@?$AAd?$AAe?$AA?9?$AAA?$AAT@ 1002586c     libcpmt:winapinls.obj
 0002:00002878       ??_C@_1M@KBFBEHJF@?$AAe?$AAn?$AA?9?$AAA?$AAU@ 10025878     libcpmt:winapinls.obj
 0002:00002884       ??_C@_1M@MNPLFAAH@?$AAe?$AAs?$AA?9?$AAE?$AAS@ 10025884     libcpmt:winapinls.obj
 0002:00002890       ??_C@_1M@HJOOJFMA@?$AAf?$AAr?$AA?9?$AAC?$AAA@ 10025890     libcpmt:winapinls.obj
 0002:0000289c       ??_C@_1BG@JPOFPNAB@?$AAs?$AAr?$AA?9?$AAS?$AAP?$AA?9?$AAC?$AAy?$AAr?$AAl@ 1002589c     libcpmt:winapinls.obj
 0002:000028b4       ??_C@_1M@LNFOCMOB@?$AAs?$AAe?$AA?9?$AAF?$AAI@ 100258b4     libcpmt:winapinls.obj
 0002:000028c0       ??_C@_1O@MGJBOAMB@?$AAq?$AAu?$AAz?$AA?9?$AAP?$AAE@ 100258c0     libcpmt:winapinls.obj
 0002:000028d0       ??_C@_1M@GJINLBOK@?$AAa?$AAr?$AA?9?$AAL?$AAY@ 100258d0     libcpmt:winapinls.obj
 0002:000028dc       ??_C@_1M@GGMNHJNL@?$AAz?$AAh?$AA?9?$AAS?$AAG@ 100258dc     libcpmt:winapinls.obj
 0002:000028e8       ??_C@_1M@HOIKODND@?$AAd?$AAe?$AA?9?$AAL?$AAU@ 100258e8     libcpmt:winapinls.obj
 0002:000028f4       ??_C@_1M@DDOCCGFG@?$AAe?$AAn?$AA?9?$AAC?$AAA@ 100258f4     libcpmt:winapinls.obj
 0002:00002900       ??_C@_1M@BNOEMJLF@?$AAe?$AAs?$AA?9?$AAG?$AAT@ 10025900     libcpmt:winapinls.obj
 0002:0000290c       ??_C@_1M@EOGNKEK@?$AAf?$AAr?$AA?9?$AAC?$AAH@ 1002590c     libcpmt:winapinls.obj
 0002:00002918       ??_C@_1M@FLIDJFHL@?$AAh?$AAr?$AA?9?$AAB?$AAA@ 10025918     libcpmt:winapinls.obj
 0002:00002924       ??_C@_1O@FMCELNAJ@?$AAs?$AAm?$AAj?$AA?9?$AAN?$AAO@ 10025924     libcpmt:winapinls.obj
 0002:00002934       ??_C@_1M@JHGLJMGJ@?$AAa?$AAr?$AA?9?$AAD?$AAZ@ 10025934     libcpmt:winapinls.obj
 0002:00002940       ??_C@_1M@JKKFDCNP@?$AAz?$AAh?$AA?9?$AAM?$AAO@ 10025940     libcpmt:winapinls.obj
 0002:0000294c       ??_C@_1M@GEEFALPE@?$AAd?$AAe?$AA?9?$AAL?$AAI@ 1002594c     libcpmt:winapinls.obj
 0002:00002958       ??_C@_1M@IGEOFBG@?$AAe?$AAn?$AA?9?$AAN?$AAZ@ 10025958     libcpmt:winapinls.obj
 0002:00002964       ??_C@_1M@KDBONEHP@?$AAe?$AAs?$AA?9?$AAC?$AAR@ 10025964     libcpmt:winapinls.obj
 0002:00002970       ??_C@_1M@FHMDOHNN@?$AAf?$AAr?$AA?9?$AAL?$AAU@ 10025970     libcpmt:winapinls.obj
 0002:0000297c       ??_C@_1BG@NFKKMAFG@?$AAb?$AAs?$AA?9?$AAB?$AAA?$AA?9?$AAL?$AAa?$AAt?$AAn@ 1002597c     libcpmt:winapinls.obj
 0002:00002994       ??_C@_1O@IMNBEMCI@?$AAs?$AAm?$AAj?$AA?9?$AAS?$AAE@ 10025994     libcpmt:winapinls.obj
 0002:000029a4       ??_C@_1M@DHHMBNDP@?$AAa?$AAr?$AA?9?$AAM?$AAA@ 100259a4     libcpmt:winapinls.obj
 0002:000029b0       ??_C@_1M@BNBLJCGH@?$AAe?$AAn?$AA?9?$AAI?$AAE@ 100259b0     libcpmt:winapinls.obj
 0002:000029bc       ??_C@_1M@GEPAFMDL@?$AAe?$AAs?$AA?9?$AAP?$AAA@ 100259bc     libcpmt:winapinls.obj
 0002:000029c8       ??_C@_1M@OJONDMDL@?$AAf?$AAr?$AA?9?$AAM?$AAC@ 100259c8     libcpmt:winapinls.obj
 0002:000029d4       ??_C@_1BG@OBCNFJB@?$AAs?$AAr?$AA?9?$AAB?$AAA?$AA?9?$AAL?$AAa?$AAt?$AAn@ 100259d4     libcpmt:winapinls.obj
 0002:000029ec       ??_C@_1O@KEMEEGPO@?$AAs?$AAm?$AAa?$AA?9?$AAN?$AAO@ 100259ec     libcpmt:winapinls.obj
 0002:000029fc       ??_C@_1M@ELMGFODK@?$AAa?$AAr?$AA?9?$AAT?$AAN@ 100259fc     libcpmt:winapinls.obj
 0002:00002a08       ??_C@_1M@BHDLHFAF@?$AAe?$AAn?$AA?9?$AAZ?$AAA@ 10025a08     libcpmt:winapinls.obj
 0002:00002a14       ??_C@_1M@BMGIGLIF@?$AAe?$AAs?$AA?9?$AAD?$AAO@ 10025a14     libcpmt:winapinls.obj
 0002:00002a20       ??_C@_1BG@CMBHIPBE@?$AAs?$AAr?$AA?9?$AAB?$AAA?$AA?9?$AAC?$AAy?$AAr?$AAl@ 10025a20     libcpmt:winapinls.obj
 0002:00002a38       ??_C@_1O@HEDBLHNP@?$AAs?$AAm?$AAa?$AA?9?$AAS?$AAE@ 10025a38     libcpmt:winapinls.obj
 0002:00002a48       ??_C@_1M@DAGCADIM@?$AAa?$AAr?$AA?9?$AAO?$AAM@ 10025a48     libcpmt:winapinls.obj
 0002:00002a54       ??_C@_1M@FODLMICG@?$AAe?$AAn?$AA?9?$AAJ?$AAM@ 10025a54     libcpmt:winapinls.obj
 0002:00002a60       ??_C@_1M@DNMLCIHB@?$AAe?$AAs?$AA?9?$AAV?$AAE@ 10025a60     libcpmt:winapinls.obj
 0002:00002a6c       ??_C@_1O@EOKHMKJK@?$AAs?$AAm?$AAs?$AA?9?$AAF?$AAI@ 10025a6c     libcpmt:winapinls.obj
 0002:00002a7c       ??_C@_1M@CAFJMKOF@?$AAa?$AAr?$AA?9?$AAY?$AAE@ 10025a7c     libcpmt:winapinls.obj
 0002:00002a88       ??_C@_1M@CBFHIJLI@?$AAe?$AAn?$AA?9?$AAC?$AAB@ 10025a88     libcpmt:winapinls.obj
 0002:00002a94       ??_C@_1M@BGNFLDN@?$AAe?$AAs?$AA?9?$AAC?$AAO@ 10025a94     libcpmt:winapinls.obj
 0002:00002aa0       ??_C@_1O@JMPHMAMC@?$AAs?$AAm?$AAn?$AA?9?$AAF?$AAI@ 10025aa0     libcpmt:winapinls.obj
 0002:00002ab0       ??_C@_1M@JLANABKE@?$AAa?$AAr?$AA?9?$AAS?$AAY@ 10025ab0     libcpmt:winapinls.obj
 0002:00002abc       ??_C@_1M@HPKGCFGN@?$AAe?$AAn?$AA?9?$AAB?$AAZ@ 10025abc     libcpmt:winapinls.obj
 0002:00002ac8       ??_C@_1M@OLJCMLGM@?$AAe?$AAs?$AA?9?$AAP?$AAE@ 10025ac8     libcpmt:winapinls.obj
 0002:00002ad4       ??_C@_1M@MKKGFKLE@?$AAa?$AAr?$AA?9?$AAJ?$AAO@ 10025ad4     libcpmt:winapinls.obj
 0002:00002ae0       ??_C@_1M@EKPGLDNI@?$AAe?$AAn?$AA?9?$AAT?$AAT@ 10025ae0     libcpmt:winapinls.obj
 0002:00002aec       ??_C@_1M@OONGHFHE@?$AAe?$AAs?$AA?9?$AAA?$AAR@ 10025aec     libcpmt:winapinls.obj
 0002:00002af8       ??_C@_1M@OOJFGBHE@?$AAa?$AAr?$AA?9?$AAL?$AAB@ 10025af8     libcpmt:winapinls.obj
 0002:00002b04       ??_C@_1M@GCEJHNEG@?$AAe?$AAn?$AA?9?$AAZ?$AAW@ 10025b04     libcpmt:winapinls.obj
 0002:00002b10       ??_C@_1M@JNOCAHJI@?$AAe?$AAs?$AA?9?$AAE?$AAC@ 10025b10     libcpmt:winapinls.obj
 0002:00002b1c       ??_C@_1M@JEFHPGGB@?$AAa?$AAr?$AA?9?$AAK?$AAW@ 10025b1c     libcpmt:winapinls.obj
 0002:00002b28       ??_C@_1M@MLKIBJOJ@?$AAe?$AAn?$AA?9?$AAP?$AAH@ 10025b28     libcpmt:winapinls.obj
 0002:00002b34       ??_C@_1M@BDNIPEND@?$AAe?$AAs?$AA?9?$AAC?$AAL@ 10025b34     libcpmt:winapinls.obj
 0002:00002b40       ??_C@_1M@MPNMEKBD@?$AAa?$AAr?$AA?9?$AAA?$AAE@ 10025b40     libcpmt:winapinls.obj
 0002:00002b4c       ??_C@_1M@KBJALCPI@?$AAe?$AAs?$AA?9?$AAU?$AAY@ 10025b4c     libcpmt:winapinls.obj
 0002:00002b58       ??_C@_1M@LLCCOAGA@?$AAa?$AAr?$AA?9?$AAB?$AAH@ 10025b58     libcpmt:winapinls.obj
 0002:00002b64       ??_C@_1M@PBFNCDEL@?$AAe?$AAs?$AA?9?$AAP?$AAY@ 10025b64     libcpmt:winapinls.obj
 0002:00002b70       ??_C@_1M@EDGINPNP@?$AAa?$AAr?$AA?9?$AAQ?$AAA@ 10025b70     libcpmt:winapinls.obj
 0002:00002b7c       ??_C@_1M@MKDBIIJI@?$AAe?$AAs?$AA?9?$AAB?$AAO@ 10025b7c     libcpmt:winapinls.obj
 0002:00002b88       ??_C@_1M@CPKKEBLD@?$AAe?$AAs?$AA?9?$AAS?$AAV@ 10025b88     libcpmt:winapinls.obj
 0002:00002b94       ??_C@_1M@NDBGMMJL@?$AAe?$AAs?$AA?9?$AAH?$AAN@ 10025b94     libcpmt:winapinls.obj
 0002:00002ba0       ??_C@_1M@JIJIBHDP@?$AAe?$AAs?$AA?9?$AAN?$AAI@ 10025ba0     libcpmt:winapinls.obj
 0002:00002bac       ??_C@_1M@CGFMKEEK@?$AAe?$AAs?$AA?9?$AAP?$AAR@ 10025bac     libcpmt:winapinls.obj
 0002:00002bb8       ??_C@_1O@ICJHKIIK@?$AAz?$AAh?$AA?9?$AAC?$AAH?$AAT@ 10025bb8     libcpmt:winapinls.obj
 0002:00002bc8       ??_C@_15CLNEJCE@?$AAs?$AAr@ 10025bc8     libcpmt:winapinls.obj
 0002:00002bd0       ??_C@_1M@KAHEKEIG@?$AAa?$AAf?$AA?9?$AAz?$AAa@ 10025bd0     libcpmt:winapinls.obj
 0002:00002bdc       ??_C@_1M@GIECOABL@?$AAa?$AAr?$AA?9?$AAa?$AAe@ 10025bdc     libcpmt:winapinls.obj
 0002:00002be8       ??_C@_1M@BMLMEKGI@?$AAa?$AAr?$AA?9?$AAb?$AAh@ 10025be8     libcpmt:winapinls.obj
 0002:00002bf4       ??_C@_1M@DAPFDGGB@?$AAa?$AAr?$AA?9?$AAd?$AAz@ 10025bf4     libcpmt:winapinls.obj
 0002:00002c00       ??_C@_1M@FJNKGKIG@?$AAa?$AAr?$AA?9?$AAe?$AAg@ 10025c00     libcpmt:winapinls.obj
 0002:00002c0c       ??_C@_1M@FLGKKCLO@?$AAa?$AAr?$AA?9?$AAi?$AAq@ 10025c0c     libcpmt:winapinls.obj
 0002:00002c18       ??_C@_1M@GNDIPALM@?$AAa?$AAr?$AA?9?$AAj?$AAo@ 10025c18     libcpmt:winapinls.obj
 0002:00002c24       ??_C@_1M@DDMJFMGJ@?$AAa?$AAr?$AA?9?$AAk?$AAw@ 10025c24     libcpmt:winapinls.obj
 0002:00002c30       ??_C@_1M@EJALMLHM@?$AAa?$AAr?$AA?9?$AAl?$AAb@ 10025c30     libcpmt:winapinls.obj
 0002:00002c3c       ??_C@_1M@MOBDBLOC@?$AAa?$AAr?$AA?9?$AAl?$AAy@ 10025c3c     libcpmt:winapinls.obj
 0002:00002c48       ??_C@_1M@JAOCLHDH@?$AAa?$AAr?$AA?9?$AAm?$AAa@ 10025c48     libcpmt:winapinls.obj
 0002:00002c54       ??_C@_1M@JHPMKJIE@?$AAa?$AAr?$AA?9?$AAo?$AAm@ 10025c54     libcpmt:winapinls.obj
 0002:00002c60       ??_C@_1M@OEPGHFNH@?$AAa?$AAr?$AA?9?$AAq?$AAa@ 10025c60     libcpmt:winapinls.obj
 0002:00002c6c       ??_C@_1M@KJDONENM@?$AAa?$AAr?$AA?9?$AAs?$AAa@ 10025c6c     libcpmt:winapinls.obj
 0002:00002c78       ??_C@_1M@DMJDKLKM@?$AAa?$AAr?$AA?9?$AAs?$AAy@ 10025c78     libcpmt:winapinls.obj
 0002:00002c84       ??_C@_1M@OMFIPEDC@?$AAa?$AAr?$AA?9?$AAt?$AAn@ 10025c84     libcpmt:winapinls.obj
 0002:00002c90       ??_C@_1M@IHMHGAON@?$AAa?$AAr?$AA?9?$AAy?$AAe@ 10025c90     libcpmt:winapinls.obj
 0002:00002c9c       ??_C@_1BG@KDCPGJGB@?$AAa?$AAz?$AA?9?$AAa?$AAz?$AA?9?$AAc?$AAy?$AAr?$AAl@ 10025c9c     libcpmt:winapinls.obj
 0002:00002cb4       ??_C@_1BG@IBCKDDOE@?$AAa?$AAz?$AA?9?$AAa?$AAz?$AA?9?$AAl?$AAa?$AAt?$AAn@ 10025cb4     libcpmt:winapinls.obj
 0002:00002ccc       ??_C@_1M@EGPFDCPD@?$AAb?$AAe?$AA?9?$AAb?$AAy@ 10025ccc     libcpmt:winapinls.obj
 0002:00002cd8       ??_C@_1M@PCMGMCGC@?$AAb?$AAg?$AA?9?$AAb?$AAg@ 10025cd8     libcpmt:winapinls.obj
 0002:00002ce4       ??_C@_1M@BJBMFGOB@?$AAb?$AAn?$AA?9?$AAi?$AAn@ 10025ce4     libcpmt:winapinls.obj
 0002:00002cf0       ??_C@_1BG@EAKMMACD@?$AAb?$AAs?$AA?9?$AAb?$AAa?$AA?9?$AAl?$AAa?$AAt?$AAn@ 10025cf0     libcpmt:winapinls.obj
 0002:00002d08       ??_C@_1M@KGADAODK@?$AAc?$AAa?$AA?9?$AAe?$AAs@ 10025d08     libcpmt:winapinls.obj
 0002:00002d14       ??_C@_1M@COAJPDHI@?$AAc?$AAs?$AA?9?$AAc?$AAz@ 10025d14     libcpmt:winapinls.obj
 0002:00002d20       ??_C@_1M@DHBHFONH@?$AAc?$AAy?$AA?9?$AAg?$AAb@ 10025d20     libcpmt:winapinls.obj
 0002:00002d2c       ??_C@_1M@IMGKELGA@?$AAd?$AAa?$AA?9?$AAd?$AAk@ 10025d2c     libcpmt:winapinls.obj
 0002:00002d38       ??_C@_1M@NNDGDNGA@?$AAd?$AAe?$AA?9?$AAa?$AAt@ 10025d38     libcpmt:winapinls.obj
 0002:00002d44       ??_C@_1M@IKDBHEEM@?$AAd?$AAe?$AA?9?$AAc?$AAh@ 10025d44     libcpmt:winapinls.obj
 0002:00002d50       ??_C@_1M@GFFOJMCJ@?$AAd?$AAe?$AA?9?$AAd?$AAe@ 10025d50     libcpmt:winapinls.obj
 0002:00002d5c       ??_C@_1M@MDNLKBPM@?$AAd?$AAe?$AA?9?$AAl?$AAi@ 10025d5c     libcpmt:winapinls.obj
 0002:00002d68       ??_C@_1M@NJBEEJNL@?$AAd?$AAe?$AA?9?$AAl?$AAu@ 10025d68     libcpmt:winapinls.obj
 0002:00002d74       ??_C@_1O@GNNELBAP@?$AAd?$AAi?$AAv?$AA?9?$AAm?$AAv@ 10025d74     libcpmt:winapinls.obj
 0002:00002d84       ??_C@_1M@EJLEOGAE@?$AAe?$AAl?$AA?9?$AAg?$AAr@ 10025d84     libcpmt:winapinls.obj
 0002:00002d90       ??_C@_1M@GMPONJN@?$AAe?$AAn?$AA?9?$AAa?$AAu@ 10025d90     libcpmt:winapinls.obj
 0002:00002d9c       ??_C@_1M@NIDIIPGF@?$AAe?$AAn?$AA?9?$AAb?$AAz@ 10025d9c     libcpmt:winapinls.obj
 0002:00002da8       ??_C@_1M@JEHMIMFO@?$AAe?$AAn?$AA?9?$AAc?$AAa@ 10025da8     libcpmt:winapinls.obj
 0002:00002db4       ??_C@_1M@IGMJCDLA@?$AAe?$AAn?$AA?9?$AAc?$AAb@ 10025db4     libcpmt:winapinls.obj
 0002:00002dc0       ??_C@_1M@BNFIGBKG@?$AAe?$AAn?$AA?9?$AAg?$AAb@ 10025dc0     libcpmt:winapinls.obj
 0002:00002dcc       ??_C@_1M@LKIFDIGP@?$AAe?$AAn?$AA?9?$AAi?$AAe@ 10025dcc     libcpmt:winapinls.obj
 0002:00002dd8       ??_C@_1M@PJKFGCCO@?$AAe?$AAn?$AA?9?$AAj?$AAm@ 10025dd8     libcpmt:winapinls.obj
 0002:00002de4       ??_C@_1M@KPPKEPBO@?$AAe?$AAn?$AA?9?$AAn?$AAz@ 10025de4     libcpmt:winapinls.obj
 0002:00002df0       ??_C@_1M@GMDGLDOB@?$AAe?$AAn?$AA?9?$AAp?$AAh@ 10025df0     libcpmt:winapinls.obj
 0002:00002dfc       ??_C@_1M@ONGIBJNA@?$AAe?$AAn?$AA?9?$AAt?$AAt@ 10025dfc     libcpmt:winapinls.obj
 0002:00002e08       ??_C@_1M@LLODPCMM@?$AAe?$AAn?$AA?9?$AAu?$AAs@ 10025e08     libcpmt:winapinls.obj
 0002:00002e14       ??_C@_1M@LAKFNPAN@?$AAe?$AAn?$AA?9?$AAz?$AAa@ 10025e14     libcpmt:winapinls.obj
 0002:00002e20       ??_C@_1M@MFNHNHEO@?$AAe?$AAn?$AA?9?$AAz?$AAw@ 10025e20     libcpmt:winapinls.obj
 0002:00002e2c       ??_C@_1M@EJEINPHM@?$AAe?$AAs?$AA?9?$AAa?$AAr@ 10025e2c     libcpmt:winapinls.obj
 0002:00002e38       ??_C@_1M@GNKPCCJA@?$AAe?$AAs?$AA?9?$AAb?$AAo@ 10025e38     libcpmt:winapinls.obj
 0002:00002e44       ??_C@_1M@LEEGFONL@?$AAe?$AAs?$AA?9?$AAc?$AAl@ 10025e44     libcpmt:winapinls.obj
 0002:00002e50       ??_C@_1M@KGPDPBDF@?$AAe?$AAs?$AA?9?$AAc?$AAo@ 10025e50     libcpmt:winapinls.obj
 0002:00002e5c       ??_C@_1M@EIAHOHH@?$AAe?$AAs?$AA?9?$AAc?$AAr@ 10025e5c     libcpmt:winapinls.obj
 0002:00002e68       ??_C@_1M@LLPGMBIN@?$AAe?$AAs?$AA?9?$AAd?$AAo@ 10025e68     libcpmt:winapinls.obj
 0002:00002e74       ??_C@_1M@DKHMKNJA@?$AAe?$AAs?$AA?9?$AAe?$AAc@ 10025e74     libcpmt:winapinls.obj
 0002:00002e80       ??_C@_1M@GKGFPKAP@?$AAe?$AAs?$AA?9?$AAe?$AAs@ 10025e80     libcpmt:winapinls.obj
 0002:00002e8c       ??_C@_1M@LKHKGDLN@?$AAe?$AAs?$AA?9?$AAg?$AAt@ 10025e8c     libcpmt:winapinls.obj
 0002:00002e98       ??_C@_1M@HEIIGGJD@?$AAe?$AAs?$AA?9?$AAh?$AAn@ 10025e98     libcpmt:winapinls.obj
 0002:00002ea4       ??_C@_1M@FBDHPPGD@?$AAe?$AAs?$AA?9?$AAm?$AAx@ 10025ea4     libcpmt:winapinls.obj
 0002:00002eb0       ??_C@_1M@DPAGLNDH@?$AAe?$AAs?$AA?9?$AAn?$AAi@ 10025eb0     libcpmt:winapinls.obj
 0002:00002ebc       ??_C@_1M@MDGOPGDD@?$AAe?$AAs?$AA?9?$AAp?$AAa@ 10025ebc     libcpmt:winapinls.obj
 0002:00002ec8       ??_C@_1M@EMAMGBGE@?$AAe?$AAs?$AA?9?$AAp?$AAe@ 10025ec8     libcpmt:winapinls.obj
 0002:00002ed4       ??_C@_1M@IBMCAOEC@?$AAe?$AAs?$AA?9?$AAp?$AAr@ 10025ed4     libcpmt:winapinls.obj
 0002:00002ee0       ??_C@_1M@FGMDIJED@?$AAe?$AAs?$AA?9?$AAp?$AAy@ 10025ee0     libcpmt:winapinls.obj
 0002:00002eec       ??_C@_1M@IIDEOLLL@?$AAe?$AAs?$AA?9?$AAs?$AAv@ 10025eec     libcpmt:winapinls.obj
 0002:00002ef8       ??_C@_1M@GAOBIPA@?$AAe?$AAs?$AA?9?$AAu?$AAy@ 10025ef8     libcpmt:winapinls.obj
 0002:00002f04       ??_C@_1M@JKFFICHJ@?$AAe?$AAs?$AA?9?$AAv?$AAe@ 10025f04     libcpmt:winapinls.obj
 0002:00002f10       ??_C@_1M@PNMLOJDF@?$AAe?$AAt?$AA?9?$AAe?$AAe@ 10025f10     libcpmt:winapinls.obj
 0002:00002f1c       ??_C@_1M@GHHLIKEI@?$AAe?$AAu?$AA?9?$AAe?$AAs@ 10025f1c     libcpmt:winapinls.obj
 0002:00002f28       ??_C@_1M@PBNONODE@?$AAf?$AAa?$AA?9?$AAi?$AAr@ 10025f28     libcpmt:winapinls.obj
 0002:00002f34       ??_C@_1M@JEEHPMIL@?$AAf?$AAi?$AA?9?$AAf?$AAi@ 10025f34     libcpmt:winapinls.obj
 0002:00002f40       ??_C@_1M@LMDCNDBA@?$AAf?$AAo?$AA?9?$AAf?$AAo@ 10025f40     libcpmt:winapinls.obj
 0002:00002f4c       ??_C@_1M@JKEOHLDK@?$AAf?$AAr?$AA?9?$AAb?$AAe@ 10025f4c     libcpmt:winapinls.obj
 0002:00002f58       ??_C@_1M@NOHADPMI@?$AAf?$AAr?$AA?9?$AAc?$AAa@ 10025f58     libcpmt:winapinls.obj
 0002:00002f64       ??_C@_1M@KDHIHAEC@?$AAf?$AAr?$AA?9?$AAc?$AAh@ 10025f64     libcpmt:winapinls.obj
 0002:00002f70       ??_C@_1M@MMBBFGAK@?$AAf?$AAr?$AA?9?$AAf?$AAr@ 10025f70     libcpmt:winapinls.obj
 0002:00002f7c       ??_C@_1M@PAFNENNF@?$AAf?$AAr?$AA?9?$AAl?$AAu@ 10025f7c     libcpmt:winapinls.obj
 0002:00002f88       ??_C@_1M@EOHDJGDD@?$AAf?$AAr?$AA?9?$AAm?$AAc@ 10025f88     libcpmt:winapinls.obj
 0002:00002f94       ??_C@_1M@FAPLLOPF@?$AAg?$AAl?$AA?9?$AAe?$AAs@ 10025f94     libcpmt:winapinls.obj
 0002:00002fa0       ??_C@_1M@FOPBFLOO@?$AAg?$AAu?$AA?9?$AAi?$AAn@ 10025fa0     libcpmt:winapinls.obj
 0002:00002fac       ??_C@_1M@KBMCINPM@?$AAh?$AAe?$AA?9?$AAi?$AAl@ 10025fac     libcpmt:winapinls.obj
 0002:00002fb8       ??_C@_1M@BBPHKFPJ@?$AAh?$AAi?$AA?9?$AAi?$AAn@ 10025fb8     libcpmt:winapinls.obj
 0002:00002fc4       ??_C@_1M@PMBNDPHD@?$AAh?$AAr?$AA?9?$AAb?$AAa@ 10025fc4     libcpmt:winapinls.obj
 0002:00002fd0       ??_C@_1M@BPCKOEGE@?$AAh?$AAr?$AA?9?$AAh?$AAr@ 10025fd0     libcpmt:winapinls.obj
 0002:00002fdc       ??_C@_1M@GACBMHKE@?$AAh?$AAu?$AA?9?$AAh?$AAu@ 10025fdc     libcpmt:winapinls.obj
 0002:00002fe8       ??_C@_1M@MILPAJJC@?$AAh?$AAy?$AA?9?$AAa?$AAm@ 10025fe8     libcpmt:winapinls.obj
 0002:00002ff4       ??_C@_1M@BABBICEC@?$AAi?$AAd?$AA?9?$AAi?$AAd@ 10025ff4     libcpmt:winapinls.obj
 0002:00003000       ??_C@_1M@BIKNHHPF@?$AAi?$AAs?$AA?9?$AAi?$AAs@ 10026000     libcpmt:winapinls.obj
 0002:0000300c       ??_C@_1M@NMPCJPHE@?$AAi?$AAt?$AA?9?$AAc?$AAh@ 1002600c     libcpmt:winapinls.obj
 0002:00003018       ??_C@_1M@GHKGFEDF@?$AAi?$AAt?$AA?9?$AAi?$AAt@ 10026018     libcpmt:winapinls.obj
 0002:00003024       ??_C@_1M@NIEJCJJA@?$AAj?$AAa?$AA?9?$AAj?$AAp@ 10026024     libcpmt:winapinls.obj
 0002:00003030       ??_C@_1M@JILFNBIM@?$AAk?$AAa?$AA?9?$AAg?$AAe@ 10026030     libcpmt:winapinls.obj
 0002:0000303c       ??_C@_1M@PACPMGPH@?$AAk?$AAk?$AA?9?$AAk?$AAz@ 1002603c     libcpmt:winapinls.obj
 0002:00003048       ??_C@_1M@IELFGMHA@?$AAk?$AAn?$AA?9?$AAi?$AAn@ 10026048     libcpmt:winapinls.obj
 0002:00003054       ??_C@_1M@DMHAEOGC@?$AAk?$AAo?$AA?9?$AAk?$AAr@ 10026054     libcpmt:winapinls.obj
 0002:00003060       ??_C@_1O@IBBJHCH@?$AAk?$AAo?$AAk?$AA?9?$AAi?$AAn@ 10026060     libcpmt:winapinls.obj
 0002:00003070       ??_C@_1M@HBAHBIGA@?$AAk?$AAy?$AA?9?$AAk?$AAg@ 10026070     libcpmt:winapinls.obj
 0002:0000307c       ??_C@_1M@KPMILCJG@?$AAl?$AAt?$AA?9?$AAl?$AAt@ 1002607c     libcpmt:winapinls.obj
 0002:00003088       ??_C@_1M@BDEKKCA@?$AAl?$AAv?$AA?9?$AAl?$AAv@ 10026088     libcpmt:winapinls.obj
 0002:00003094       ??_C@_1M@ELCKCCJJ@?$AAm?$AAi?$AA?9?$AAn?$AAz@ 10026094     libcpmt:winapinls.obj
 0002:000030a0       ??_C@_1M@CBOOLAPA@?$AAm?$AAk?$AA?9?$AAm?$AAk@ 100260a0     libcpmt:winapinls.obj
 0002:000030ac       ??_C@_1M@GPHNBJKN@?$AAm?$AAl?$AA?9?$AAi?$AAn@ 100260ac     libcpmt:winapinls.obj
 0002:000030b8       ??_C@_1M@PABJILIG@?$AAm?$AAn?$AA?9?$AAm?$AAn@ 100260b8     libcpmt:winapinls.obj
 0002:000030c4       ??_C@_1M@FGBKKIPG@?$AAm?$AAr?$AA?9?$AAi?$AAn@ 100260c4     libcpmt:winapinls.obj
 0002:000030d0       ??_C@_1M@NDBPDDAL@?$AAm?$AAs?$AA?9?$AAb?$AAn@ 100260d0     libcpmt:winapinls.obj
 0002:000030dc       ??_C@_1M@OPIHOOPI@?$AAm?$AAs?$AA?9?$AAm?$AAy@ 100260dc     libcpmt:winapinls.obj
 0002:000030e8       ??_C@_1M@PPDBCNFM@?$AAm?$AAt?$AA?9?$AAm?$AAt@ 100260e8     libcpmt:winapinls.obj
 0002:000030f4       ??_C@_1M@KDJDKMDD@?$AAn?$AAb?$AA?9?$AAn?$AAo@ 100260f4     libcpmt:winapinls.obj
 0002:00003100       ??_C@_1M@KFCFLMJP@?$AAn?$AAl?$AA?9?$AAb?$AAe@ 10026100     libcpmt:winapinls.obj
 0002:0000310c       ??_C@_1M@KPOPDDGO@?$AAn?$AAl?$AA?9?$AAn?$AAl@ 1002610c     libcpmt:winapinls.obj
 0002:00003118       ??_C@_1M@LJKPEMLN@?$AAn?$AAn?$AA?9?$AAn?$AAo@ 10026118     libcpmt:winapinls.obj
 0002:00003124       ??_C@_1M@BDGHHBFL@?$AAn?$AAs?$AA?9?$AAz?$AAa@ 10026124     libcpmt:winapinls.obj
 0002:00003130       ??_C@_1M@IDEHOAP@?$AAp?$AAa?$AA?9?$AAi?$AAn@ 10026130     libcpmt:winapinls.obj
 0002:0000313c       ??_C@_1M@HDBKGOGH@?$AAp?$AAl?$AA?9?$AAp?$AAl@ 1002613c     libcpmt:winapinls.obj
 0002:00003148       ??_C@_1M@LJLLCMEH@?$AAp?$AAt?$AA?9?$AAb?$AAr@ 10026148     libcpmt:winapinls.obj
 0002:00003154       ??_C@_1M@NCMONAAL@?$AAp?$AAt?$AA?9?$AAp?$AAt@ 10026154     libcpmt:winapinls.obj
 0002:00003160       ??_C@_1O@EAKMAJDN@?$AAq?$AAu?$AAz?$AA?9?$AAb?$AAo@ 10026160     libcpmt:winapinls.obj
 0002:00003170       ??_C@_1O@BHHPIGDN@?$AAq?$AAu?$AAz?$AA?9?$AAe?$AAc@ 10026170     libcpmt:winapinls.obj
 0002:00003180       ??_C@_1O@GBAPEKMJ@?$AAq?$AAu?$AAz?$AA?9?$AAp?$AAe@ 10026180     libcpmt:winapinls.obj
 0002:00003190       ??_C@_1M@CLGLEFBO@?$AAr?$AAo?$AA?9?$AAr?$AAo@ 10026190     libcpmt:winapinls.obj
 0002:0000319c       ??_C@_1M@CEEDODME@?$AAr?$AAu?$AA?9?$AAr?$AAu@ 1002619c     libcpmt:winapinls.obj
 0002:000031a8       ??_C@_1M@HPKKKMPP@?$AAs?$AAa?$AA?9?$AAi?$AAn@ 100261a8     libcpmt:winapinls.obj
 0002:000031b4       ??_C@_1M@BKMAIGOJ@?$AAs?$AAe?$AA?9?$AAf?$AAi@ 100261b4     libcpmt:winapinls.obj
 0002:000031c0       ??_C@_1M@NDPIFLFI@?$AAs?$AAe?$AA?9?$AAn?$AAo@ 100261c0     libcpmt:winapinls.obj
 0002:000031cc       ??_C@_1M@DANKKHJ@?$AAs?$AAe?$AA?9?$AAs?$AAe@ 100261cc     libcpmt:winapinls.obj
 0002:000031d8       ??_C@_1M@PNBLONPJ@?$AAs?$AAk?$AA?9?$AAs?$AAk@ 100261d8     libcpmt:winapinls.obj
 0002:000031e4       ??_C@_1M@LFMODOAL@?$AAs?$AAl?$AA?9?$AAs?$AAi@ 100261e4     libcpmt:winapinls.obj
 0002:000031f0       ??_C@_1O@DFKOMPG@?$AAs?$AAm?$AAa?$AA?9?$AAn?$AAo@ 100261f0     libcpmt:winapinls.obj
 0002:00003200       ??_C@_1O@NDKPBNNH@?$AAs?$AAm?$AAa?$AA?9?$AAs?$AAe@ 10026200     libcpmt:winapinls.obj
 0002:00003210       ??_C@_1O@PLLKBHAB@?$AAs?$AAm?$AAj?$AA?9?$AAn?$AAo@ 10026210     libcpmt:winapinls.obj
 0002:00003220       ??_C@_1O@CLEPOGCA@?$AAs?$AAm?$AAj?$AA?9?$AAs?$AAe@ 10026220     libcpmt:winapinls.obj
 0002:00003230       ??_C@_1O@DLGJGKMK@?$AAs?$AAm?$AAn?$AA?9?$AAf?$AAi@ 10026230     libcpmt:winapinls.obj
 0002:00003240       ??_C@_1O@OJDJGAJC@?$AAs?$AAm?$AAs?$AA?9?$AAf?$AAi@ 10026240     libcpmt:winapinls.obj
 0002:00003250       ??_C@_1M@BOFOGHPB@?$AAs?$AAq?$AA?9?$AAa?$AAl@ 10026250     libcpmt:winapinls.obj
 0002:0000325c       ??_C@_1BG@LJBBIPGB@?$AAs?$AAr?$AA?9?$AAb?$AAa?$AA?9?$AAc?$AAy?$AAr?$AAl@ 1002625c     libcpmt:winapinls.obj
 0002:00003274       ??_C@_1BG@JLBENFOE@?$AAs?$AAr?$AA?9?$AAb?$AAa?$AA?9?$AAl?$AAa?$AAt?$AAn@ 10026274     libcpmt:winapinls.obj
 0002:0000328c       ??_C@_1BG@KODPNHE@?$AAs?$AAr?$AA?9?$AAs?$AAp?$AA?9?$AAc?$AAy?$AAr?$AAl@ 1002628c     libcpmt:winapinls.obj
 0002:000032a4       ??_C@_1BG@CIOGKHPB@?$AAs?$AAr?$AA?9?$AAs?$AAp?$AA?9?$AAl?$AAa?$AAt?$AAn@ 100262a4     libcpmt:winapinls.obj
 0002:000032bc       ??_C@_1M@NGFJLMAC@?$AAs?$AAv?$AA?9?$AAf?$AAi@ 100262bc     libcpmt:winapinls.obj
 0002:000032c8       ??_C@_1M@MPJEJAJC@?$AAs?$AAv?$AA?9?$AAs?$AAe@ 100262c8     libcpmt:winapinls.obj
 0002:000032d4       ??_C@_1M@MPNDHLFK@?$AAs?$AAw?$AA?9?$AAk?$AAe@ 100262d4     libcpmt:winapinls.obj
 0002:000032e0       ??_C@_1O@KOHBJJI@?$AAs?$AAy?$AAr?$AA?9?$AAs?$AAy@ 100262e0     libcpmt:winapinls.obj
 0002:000032f0       ??_C@_1M@LDCEFHA@?$AAt?$AAa?$AA?9?$AAi?$AAn@ 100262f0     libcpmt:winapinls.obj
 0002:000032fc       ??_C@_1M@CNJOFAK@?$AAt?$AAe?$AA?9?$AAi?$AAn@ 100262fc     libcpmt:winapinls.obj
 0002:00003308       ??_C@_1M@GNAECACD@?$AAt?$AAh?$AA?9?$AAt?$AAh@ 10026308     libcpmt:winapinls.obj
 0002:00003314       ??_C@_1M@CHBIHOJO@?$AAt?$AAn?$AA?9?$AAz?$AAa@ 10026314     libcpmt:winapinls.obj
 0002:00003320       ??_C@_1M@GCCMIGPJ@?$AAt?$AAr?$AA?9?$AAt?$AAr@ 10026320     libcpmt:winapinls.obj
 0002:0000332c       ??_C@_1M@CELMCNBK@?$AAt?$AAt?$AA?9?$AAr?$AAu@ 1002632c     libcpmt:winapinls.obj
 0002:00003338       ??_C@_1M@KLMCELGA@?$AAu?$AAk?$AA?9?$AAu?$AAa@ 10026338     libcpmt:winapinls.obj
 0002:00003344       ??_C@_1M@EPAJJAJF@?$AAu?$AAr?$AA?9?$AAp?$AAk@ 10026344     libcpmt:winapinls.obj
 0002:00003350       ??_C@_1BG@GEGPMCDJ@?$AAu?$AAz?$AA?9?$AAu?$AAz?$AA?9?$AAc?$AAy?$AAr?$AAl@ 10026350     libcpmt:winapinls.obj
 0002:00003368       ??_C@_1BG@EGGKJILM@?$AAu?$AAz?$AA?9?$AAu?$AAz?$AA?9?$AAl?$AAa?$AAt?$AAn@ 10026368     libcpmt:winapinls.obj
 0002:00003380       ??_C@_1M@GFOCLFF@?$AAv?$AAi?$AA?9?$AAv?$AAn@ 10026380     libcpmt:winapinls.obj
 0002:0000338c       ??_C@_1M@CPAMEDFI@?$AAx?$AAh?$AA?9?$AAz?$AAa@ 1002638c     libcpmt:winapinls.obj
 0002:00003398       ??_C@_1O@EBKIFIGN@?$AAz?$AAh?$AA?9?$AAc?$AAh?$AAs@ 10026398     libcpmt:winapinls.obj
 0002:000033a8       ??_C@_1O@NMHPGANE@?$AAz?$AAh?$AA?9?$AAc?$AAh?$AAt@ 100263a8     libcpmt:winapinls.obj
 0002:000033b8       ??_C@_1M@LPINJOMC@?$AAz?$AAh?$AA?9?$AAc?$AAn@ 100263b8     libcpmt:winapinls.obj
 0002:000033c4       ??_C@_1M@OCJEJODD@?$AAz?$AAh?$AA?9?$AAh?$AAk@ 100263c4     libcpmt:winapinls.obj
 0002:000033d0       ??_C@_1M@DNDLJINH@?$AAz?$AAh?$AA?9?$AAm?$AAo@ 100263d0     libcpmt:winapinls.obj
 0002:000033dc       ??_C@_1M@MBFDNDND@?$AAz?$AAh?$AA?9?$AAs?$AAg@ 100263dc     libcpmt:winapinls.obj
 0002:000033e8       ??_C@_1M@IMEPLEPE@?$AAz?$AAh?$AA?9?$AAt?$AAw@ 100263e8     libcpmt:winapinls.obj
 0002:000033f4       ??_C@_1M@BBGHNHJP@?$AAz?$AAu?$AA?9?$AAz?$AAa@ 100263f4     libcpmt:winapinls.obj
 0002:00003400       __pDefaultRawDllMain       10026400     LIBCMT:dll_dllmain.obj
 0002:00003400       __pRawDllMain              10026400     LIBCMT:dll_dllmain.obj
 0002:00003408       ??_7type_info@@6B@         10026408     LIBCMT:std_type_info_static.obj
 0002:00003418       ??_7bad_array_new_length@std@@6B@ 10026418     LIBCMT:throw_bad_alloc.obj
 0002:00003420       ??_C@_0BF@KINCDENJ@bad?5array?5new?5length@ 10026420     LIBCMT:throw_bad_alloc.obj
 0002:00003458       __pDestructExceptionObject 10026458     libvcruntime:ehhelpers.obj
 0002:00003460       ??_7bad_exception@std@@6B@ 10026460     libvcruntime:frame.obj
 0002:00003468       ??_C@_0O@DPKOEFFH@bad?5exception@ 10026468     libvcruntime:frame.obj
 0002:00003484       ??_C@_1DM@KHCHBNEB@?$AAa?$AAp?$AAi?$AA?9?$AAm?$AAs?$AA?9?$AAw?$AAi?$AAn?$AA?9?$AAc?$AAo?$AAr?$AAe@ 10026484     libvcruntime:winapi_downlevel.obj
 0002:000034c0       ??_C@_1DK@LPPGFMPP@?$AAa?$AAp?$AAi?$AA?9?$AAm?$AAs?$AA?9?$AAw?$AAi?$AAn?$AA?9?$AAc?$AAo?$AAr?$AAe@ 100264c0     libvcruntime:winapi_downlevel.obj
 0002:000034fc       ??_C@_1BC@GDMECMAK@?$AAk?$AAe?$AAr?$AAn?$AAe?$AAl?$AA3?$AA2@ 100264fc     libvcruntime:winapi_downlevel.obj
 0002:00003510       ??_C@_1BA@PFFKHIOG@?$AAa?$AAp?$AAi?$AA?9?$AAm?$AAs?$AA?9@ 10026510     libvcruntime:winapi_downlevel.obj
 0002:00003520       ??_C@_1BA@IAIFMGEF@?$AAe?$AAx?$AAt?$AA?9?$AAm?$AAs?$AA?9@ 10026520     libvcruntime:winapi_downlevel.obj
 0002:000036f4       ??_C@_08EHJDFFNH@__based?$CI@ 100266f4     libvcruntime:undname.obj
 0002:00003700       ??_C@_07KOLFKCDI@__cdecl@  10026700     libvcruntime:undname.obj
 0002:00003708       ??_C@_08GHMPAG@__pascal@   10026708     libvcruntime:undname.obj
 0002:00003714       ??_C@_09IFJBGAPI@__stdcall@ 10026714     libvcruntime:undname.obj
 0002:00003720       ??_C@_0L@NPHFGOKO@__thiscall@ 10026720     libvcruntime:undname.obj
 0002:0000372c       ??_C@_0L@JMKHOMEK@__fastcall@ 1002672c     libvcruntime:undname.obj
 0002:00003738       ??_C@_0N@BCKKPABJ@__vectorcall@ 10026738     libvcruntime:undname.obj
 0002:00003748       ??_C@_09HIJEGCPM@__clrcall@ 10026748     libvcruntime:undname.obj
 0002:00003754       ??_C@_06GHPCKEAG@__eabi@   10026754     libvcruntime:undname.obj
 0002:0000375c       ??_C@_09IOPIDJLG@__swift_1@ 1002675c     libvcruntime:undname.obj
 0002:00003768       ??_C@_09KFNFGKHF@__swift_2@ 10026768     libvcruntime:undname.obj
 0002:00003774       ??_C@_07JOMMBBKO@__ptr64@  10026774     libvcruntime:undname.obj
 0002:0000377c       ??_C@_0L@PILCLIHE@__restrict@ 1002677c     libvcruntime:undname.obj
 0002:00003788       ??_C@_0M@GFIIJFMG@__unaligned@ 10026788     libvcruntime:undname.obj
 0002:00003794       ??_C@_09DHDLOLLB@restrict?$CI@ 10026794     libvcruntime:undname.obj
 0002:000037a0       ??_C@_04NIHEBCM@?5new@     100267a0     libvcruntime:undname.obj
 0002:000037a8       ??_C@_07FPCDHGMM@?5delete@ 100267a8     libvcruntime:undname.obj
 0002:000037b0       ??_C@_01NEMOKFLO@?$DN@     100267b0     libvcruntime:undname.obj
 0002:000037b4       ??_C@_02GPIOPFAK@?$DO?$DO@ 100267b4     libvcruntime:undname.obj
 0002:000037b8       ??_C@_02FODMEDOG@?$DM?$DM@ 100267b8     libvcruntime:undname.obj
 0002:000037bc       ??_C@_01DCLJPIOD@?$CB@     100267bc     libvcruntime:undname.obj
 0002:000037c0       ??_C@_02EGOFBIJA@?$DN?$DN@ 100267c0     libvcruntime:undname.obj
 0002:000037c4       ??_C@_02FDNJECIE@?$CB?$DN@ 100267c4     libvcruntime:undname.obj
 0002:000037c8       ??_C@_02GPECMEKF@?$FL?$FN@ 100267c8     libvcruntime:undname.obj
 0002:000037cc       ??_C@_08LHJFAFGD@operator@ 100267cc     libvcruntime:undname.obj
 0002:000037d8       ??_C@_02HBOOOICD@?9?$DO@   100267d8     libvcruntime:undname.obj
 0002:000037dc       ??_C@_02ECNGHCIF@?$CL?$CL@ 100267dc     libvcruntime:undname.obj
 0002:000037e0       ??_C@_02BAABKJLB@?9?9@     100267e0     libvcruntime:undname.obj
 0002:000037e4       ??_C@_01MIFGBAGJ@?$CL@     100267e4     libvcruntime:undname.obj
 0002:000037e8       ??_C@_01HNPIGOCE@?$CG@     100267e8     libvcruntime:undname.obj
 0002:000037ec       ??_C@_03MNHNFDLC@?9?$DO?$CK@ 100267ec     libvcruntime:undname.obj
 0002:000037f0       ??_C@_01KMDKNFGN@?1@       100267f0     libvcruntime:undname.obj
 0002:000037f4       ??_C@_01FGNFDNOH@?$CF@     100267f4     libvcruntime:undname.obj
 0002:000037f8       ??_C@_01MNNFJEPP@?$DM@     100267f8     libvcruntime:undname.obj
 0002:000037fc       ??_C@_02EHCHHCKH@?$DM?$DN@ 100267fc     libvcruntime:undname.obj
 0002:00003800       ??_C@_01PPODPGHN@?$DO@     10026800     libvcruntime:undname.obj
 0002:00003804       ??_C@_02EEKDKGMJ@?$DO?$DN@ 10026804     libvcruntime:undname.obj
 0002:00003808       ??_C@_01IHBHIGKO@?0@       10026808     libvcruntime:undname.obj
 0002:0000380c       ??_C@_02HCKGKOFO@?$CI?$CJ@ 1002680c     libvcruntime:undname.obj
 0002:00003810       ??_C@_01PJKLJHI@?$HO@      10026810     libvcruntime:undname.obj
 0002:00003814       ??_C@_01JKBOJNNK@?$FO@     10026814     libvcruntime:undname.obj
 0002:00003818       ??_C@_01DNKMNLPK@?$HM@     10026818     libvcruntime:undname.obj
 0002:0000381c       ??_C@_02PPKAJPJL@?$CG?$CG@ 1002681c     libvcruntime:undname.obj
 0002:00003820       ??_C@_02NONPIBCD@?$HM?$HM@ 10026820     libvcruntime:undname.obj
 0002:00003824       ??_C@_02FPIMKNGF@?$CK?$DN@ 10026824     libvcruntime:undname.obj
 0002:00003828       ??_C@_02FOEOMHFC@?$CL?$DN@ 10026828     libvcruntime:undname.obj
 0002:0000382c       ??_C@_02FKMDLLOA@?9?$DN@   1002682c     libvcruntime:undname.obj
 0002:00003830       ??_C@_02FJEHGPIO@?1?$DN@   10026830     libvcruntime:undname.obj
 0002:00003834       ??_C@_02FENAOKFI@?$CF?$DN@ 10026834     libvcruntime:undname.obj
 0002:00003838       ??_C@_03IKFCCPFF@?$DO?$DO?$DN@ 10026838     libvcruntime:undname.obj
 0002:0000383c       ??_C@_03CDNPDDLA@?$DM?$DM?$DN@ 1002683c     libvcruntime:undname.obj
 0002:00003840       ??_C@_02FGJGFEAB@?$CG?$DN@ 10026840     libvcruntime:undname.obj
 0002:00003844       ??_C@_02DHLNPPGH@?$HM?$DN@ 10026844     libvcruntime:undname.obj
 0002:00003848       ??_C@_02MHEGNOJ@?$FO?$DN@  10026848     libvcruntime:undname.obj
 0002:0000384c       ??_C@_09IFPLHPGF@?$GAvftable?8@ 1002684c     libvcruntime:undname.obj
 0002:00003858       ??_C@_09BLBHBJP@?$GAvbtable?8@ 10026858     libvcruntime:undname.obj
 0002:00003864       ??_C@_07FEEIOKP@?$GAvcall?8@ 10026864     libvcruntime:undname.obj
 0002:0000386c       ??_C@_08LLFFHHDJ@?$GAtypeof?8@ 1002686c     libvcruntime:undname.obj
 0002:00003878       ??_C@_0BF@KDPPACIK@?$GAlocal?5static?5guard?8@ 10026878     libvcruntime:undname.obj
 0002:00003890       ??_C@_08OBABFOLI@?$GAstring?8@ 10026890     libvcruntime:undname.obj
 0002:0000389c       ??_C@_0BD@JDLKDPAB@?$GAvbase?5destructor?8@ 1002689c     libvcruntime:undname.obj
 0002:000038b0       ??_C@_0BN@DEGPLNFK@?$GAvector?5deleting?5destructor?8@ 100268b0     libvcruntime:undname.obj
 0002:000038d0       ??_C@_0BO@OBMKPJIG@?$GAdefault?5constructor?5closure?8@ 100268d0     libvcruntime:undname.obj
 0002:000038f0       ??_C@_0BN@IMDCHIKM@?$GAscalar?5deleting?5destructor?8@ 100268f0     libvcruntime:undname.obj
 0002:00003910       ??_C@_0BO@PFGOCPJJ@?$GAvector?5constructor?5iterator?8@ 10026910     libvcruntime:undname.obj
 0002:00003930       ??_C@_0BN@LFPFMEDL@?$GAvector?5destructor?5iterator?8@ 10026930     libvcruntime:undname.obj
 0002:00003950       ??_C@_0CE@IKBNEHA@?$GAvector?5vbase?5constructor?5itera@ 10026950     libvcruntime:undname.obj
 0002:00003974       ??_C@_0BL@NILFHHPC@?$GAvirtual?5displacement?5map?8@ 10026974     libvcruntime:undname.obj
 0002:00003990       ??_C@_0CB@JONCMFFK@?$GAeh?5vector?5constructor?5iterator@ 10026990     libvcruntime:undname.obj
 0002:000039b4       ??_C@_0CA@GCEOPDGL@?$GAeh?5vector?5destructor?5iterator?8@ 100269b4     libvcruntime:undname.obj
 0002:000039d4       ??_C@_0CH@OOJPLCPH@?$GAeh?5vector?5vbase?5constructor?5it@ 100269d4     libvcruntime:undname.obj
 0002:000039fc       ??_C@_0BL@LLKPOHJI@?$GAcopy?5constructor?5closure?8@ 100269fc     libvcruntime:undname.obj
 0002:00003a18       ??_C@_0BA@KBCDOMBN@?$GAudt?5returning?8@ 10026a18     libvcruntime:undname.obj
 0002:00003a28       ??_C@_03KLGMFNMG@?$GAEH@   10026a28     libvcruntime:undname.obj
 0002:00003a2c       ??_C@_05KHLCHHI@?$GARTTI@  10026a2c     libvcruntime:undname.obj
 0002:00003a34       ??_C@_0BA@KKLDJDLB@?$GAlocal?5vftable?8@ 10026a34     libvcruntime:undname.obj
 0002:00003a44       ??_C@_0CE@IIHCMGGL@?$GAlocal?5vftable?5constructor?5clos@ 10026a44     libvcruntime:undname.obj
 0002:00003a68       ??_C@_06FHBGPFGH@?5new?$FL?$FN@ 10026a68     libvcruntime:undname.obj
 0002:00003a70       ??_C@_09LBNFPBCA@?5delete?$FL?$FN@ 10026a70     libvcruntime:undname.obj
 0002:00003a7c       ??_C@_0P@HJKNJFNN@?$GAomni?5callsig?8@ 10026a7c     libvcruntime:undname.obj
 0002:00003a8c       ??_C@_0BL@CNOONJFP@?$GAplacement?5delete?5closure?8@ 10026a8c     libvcruntime:undname.obj
 0002:00003aa8       ??_C@_0BN@CKNJLHMB@?$GAplacement?5delete?$FL?$FN?5closure?8@ 10026aa8     libvcruntime:undname.obj
 0002:00003ac8       ??_C@_0CG@CFDHKGGD@?$GAmanaged?5vector?5constructor?5ite@ 10026ac8     libvcruntime:undname.obj
 0002:00003af0       ??_C@_0CF@IMGKMJNO@?$GAmanaged?5vector?5destructor?5iter@ 10026af0     libvcruntime:undname.obj
 0002:00003b18       ??_C@_0CG@HLDDJMAG@?$GAeh?5vector?5copy?5constructor?5ite@ 10026b18     libvcruntime:undname.obj
 0002:00003b40       ??_C@_0CM@FCBBDIGB@?$GAeh?5vector?5vbase?5copy?5construct@ 10026b40     libvcruntime:undname.obj
 0002:00003b6c       ??_C@_0BL@CLIPGLGB@?$GAdynamic?5initializer?5for?5?8@ 10026b6c     libvcruntime:undname.obj
 0002:00003b88       ??_C@_0CB@PDBIFEP@?$GAdynamic?5atexit?5destructor?5for?5@ 10026b88     libvcruntime:undname.obj
 0002:00003bac       ??_C@_0CD@CGAJBKEJ@?$GAvector?5copy?5constructor?5iterat@ 10026bac     libvcruntime:undname.obj
 0002:00003bd0       ??_C@_0CJ@GJELGAMM@?$GAvector?5vbase?5copy?5constructor?5@ 10026bd0     libvcruntime:undname.obj
 0002:00003bfc       ??_C@_0CL@FGIJHLCE@?$GAmanaged?5vector?5copy?5constructo@ 10026bfc     libvcruntime:undname.obj
 0002:00003c28       ??_C@_0BM@PMGGMLDN@?$GAlocal?5static?5thread?5guard?8@ 10026c28     libvcruntime:undname.obj
 0002:00003c44       ??_C@_0N@BDNMDMOL@operator?5?$CC?$CC?5@ 10026c44     libvcruntime:undname.obj
 0002:00003c54       ??_C@_0BC@GGEBGALA@operator?5co_await@ 10026c54     libvcruntime:undname.obj
 0002:00003c68       ??_C@_0BC@DAFEJGAK@?5Type?5Descriptor?8@ 10026c68     libvcruntime:undname.obj
 0002:00003c7c       ??_C@_0BM@LDKODKLH@?5Base?5Class?5Descriptor?5at?5?$CI@ 10026c7c     libvcruntime:undname.obj
 0002:00003c98       ??_C@_0BD@LGICGFMM@?5Base?5Class?5Array?8@ 10026c98     libvcruntime:undname.obj
 0002:00003cac       ??_C@_0BN@MECKDCOJ@?5Class?5Hierarchy?5Descriptor?8@ 10026cac     libvcruntime:undname.obj
 0002:00003ccc       ??_C@_0BK@CFCOFLF@?5Complete?5Object?5Locator?8@ 10026ccc     libvcruntime:undname.obj
 0002:00003ce8       __real@3ff0000000000000    10026ce8     libucrt:frexp.obj
 0002:00003cf0       ___newctype                10026cf0     libucrt:ctype.obj
 0002:00003ff0       ___newclmap                10026ff0     libucrt:ctype.obj
 0002:00004170       ___newcumap                10027170     libucrt:ctype.obj
 0002:000042f0       __wctype                   100272f0     libucrt:ctype.obj
 0002:00004664       __half                     10027664     libucrt:pow_impl.obj
 0002:00004670       ___acrt_exception_action_table 10027670     libucrt:exception_filter.obj
 0002:00004700       ___acrt_signal_action_table_count 10027700     libucrt:exception_filter.obj
 0002:00004704       ___acrt_signal_action_first_fpe_index 10027704     libucrt:exception_filter.obj
 0002:00004708       ___acrt_signal_action_fpe_count 10027708     libucrt:exception_filter.obj
 0002:0000470c       ??_C@_1BI@BGOHAHKC@?$AAm?$AAs?$AAc?$AAo?$AAr?$AAe?$AAe?$AA?4?$AAd?$AAl?$AAl?$AA?$AA@ 1002770c     libucrt:exit.obj
 0002:00004724       ??_C@_0P@MIGLKIOC@CorExitProcess?$AA@ 10027724     libucrt:exit.obj
 0002:00004838       ___lc_category             10027838     libucrt:wsetlocale.obj
 0002:00004880       ??_C@_1O@GIFLHMA@?$AAL?$AAC?$AA_?$AAA?$AAL?$AAL?$AA?$AA@ 10027880     libucrt:wsetlocale.obj
 0002:00004890       ??_C@_1BG@PPOMIBNJ@?$AAL?$AAC?$AA_?$AAC?$AAO?$AAL?$AAL?$AAA?$AAT?$AAE?$AA?$AA@ 10027890     libucrt:wsetlocale.obj
 0002:000048a8       ??_C@_1BC@FFJGAPJM@?$AAL?$AAC?$AA_?$AAC?$AAT?$AAY?$AAP?$AAE?$AA?$AA@ 100278a8     libucrt:wsetlocale.obj
 0002:000048bc       ??_C@_1BI@PCKFNJFB@?$AAL?$AAC?$AA_?$AAM?$AAO?$AAN?$AAE?$AAT?$AAA?$AAR?$AAY?$AA?$AA@ 100278bc     libucrt:wsetlocale.obj
 0002:000048d4       ??_C@_1BG@ENIEDKID@?$AAL?$AAC?$AA_?$AAN?$AAU?$AAM?$AAE?$AAR?$AAI?$AAC?$AA?$AA@ 100278d4     libucrt:wsetlocale.obj
 0002:000048ec       ??_C@_1BA@HAAOMIIG@?$AAL?$AAC?$AA_?$AAT?$AAI?$AAM?$AAE?$AA?$AA@ 100278ec     libucrt:wsetlocale.obj
 0002:000048fc       ??_C@_15NBPDDFIP@?$AA?$DN?$AA?$DL?$AA?$AA@ 100278fc     libucrt:wsetlocale.obj
 0002:00004904       ??_C@_13PJJBFPED@?$AA?$DL?$AA?$AA@ 10027904     libucrt:wsetlocale.obj
 0002:00004908       ??_C@_13NMPKAAJP@?$AA?$DN?$AA?$AA@ 10027908     libucrt:wsetlocale.obj
 0002:0000490c       ??_C@_13FHBKNHDA@?$AAC?$AA?$AA@ 1002790c     libucrt:wsetlocale.obj
 0002:00004910       ??_C@_19MPDNHKDG@?$AAu?$AAt?$AAf?$AA8?$AA?$AA@ 10027910     libucrt:wsetlocale.obj
 0002:0000491c       ??_C@_1M@FPEIIFAM@?$AAu?$AAt?$AAf?$AA?9?$AA8?$AA?$AA@ 1002791c     libucrt:wsetlocale.obj
 0002:00004928       ??_C@_17MBJJLFDM@?$AA_?$AA?4?$AA?0?$AA?$AA@ 10027928     libucrt:wsetlocale.obj
 0002:00004930       ??_C@_13ENNFDPBH@?$AA_?$AA?$AA@ 10027930     libucrt:wsetlocale.obj
 0002:00004934       ??_C@_13JOFGPIOO@?$AA?4?$AA?$AA@ 10027934     libucrt:wsetlocale.obj
 0002:00004938       ___lc_time_c               10027938     libucrt:nlsdata.obj
 0002:00004a9c       ??_C@_03KOEHGMDN@Sun?$AA@  10027a9c     libucrt:nlsdata.obj
 0002:00004aa0       ??_C@_03PDAGKDH@Mon?$AA@   10027aa0     libucrt:nlsdata.obj
 0002:00004aa4       ??_C@_03NAGEINEP@Tue?$AA@  10027aa4     libucrt:nlsdata.obj
 0002:00004aa8       ??_C@_03MHOMLAJA@Wed?$AA@  10027aa8     libucrt:nlsdata.obj
 0002:00004aac       ??_C@_03IOFIKPDN@Thu?$AA@  10027aac     libucrt:nlsdata.obj
 0002:00004ab0       ??_C@_03IDIOELNC@Fri?$AA@  10027ab0     libucrt:nlsdata.obj
 0002:00004ab4       ??_C@_03FEFJNEK@Sat?$AA@   10027ab4     libucrt:nlsdata.obj
 0002:00004ab8       ??_C@_06OOPIFAJ@Sunday?$AA@ 10027ab8     libucrt:nlsdata.obj
 0002:00004ac0       ??_C@_06JLEDEDGH@Monday?$AA@ 10027ac0     libucrt:nlsdata.obj
 0002:00004ac8       ??_C@_07BAAGCFCM@Tuesday?$AA@ 10027ac8     libucrt:nlsdata.obj
 0002:00004ad0       ??_C@_09DLIGFAKA@Wednesday?$AA@ 10027ad0     libucrt:nlsdata.obj
 0002:00004adc       ??_C@_08HACCIKIA@Thursday?$AA@ 10027adc     libucrt:nlsdata.obj
 0002:00004ae8       ??_C@_06JECMNKMI@Friday?$AA@ 10027ae8     libucrt:nlsdata.obj
 0002:00004af0       ??_C@_08INBOOONO@Saturday?$AA@ 10027af0     libucrt:nlsdata.obj
 0002:00004afc       ??_C@_03JIHJHPIE@Jan?$AA@  10027afc     libucrt:nlsdata.obj
 0002:00004b00       ??_C@_03HJBDCHOM@Feb?$AA@  10027b00     libucrt:nlsdata.obj
 0002:00004b04       ??_C@_03ODNJBKGA@Mar?$AA@  10027b04     libucrt:nlsdata.obj
 0002:00004b08       ??_C@_03LEOLGMJP@Apr?$AA@  10027b08     libucrt:nlsdata.obj
 0002:00004b0c       ??_C@_03CNMDKL@May?$AA@    10027b0c     libucrt:nlsdata.obj
 0002:00004b10       ??_C@_03IDFGHECI@Jun?$AA@  10027b10     libucrt:nlsdata.obj
 0002:00004b14       ??_C@_03LBGABGKK@Jul?$AA@  10027b14     libucrt:nlsdata.obj
 0002:00004b18       ??_C@_03IFJFEIGA@Aug?$AA@  10027b18     libucrt:nlsdata.obj
 0002:00004b1c       ??_C@_03GGCAPAJC@Sep?$AA@  10027b1c     libucrt:nlsdata.obj
 0002:00004b20       ??_C@_03BMAOKBAD@Oct?$AA@  10027b20     libucrt:nlsdata.obj
 0002:00004b24       ??_C@_03JPJOFNIA@Nov?$AA@  10027b24     libucrt:nlsdata.obj
 0002:00004b28       ??_C@_03MKABNOCG@Dec?$AA@  10027b28     libucrt:nlsdata.obj
 0002:00004b2c       ??_C@_07CGJPFGJA@January?$AA@ 10027b2c     libucrt:nlsdata.obj
 0002:00004b34       ??_C@_08GNJGEPFN@February?$AA@ 10027b34     libucrt:nlsdata.obj
 0002:00004b40       ??_C@_05HPCKOFNC@March?$AA@ 10027b40     libucrt:nlsdata.obj
 0002:00004b48       ??_C@_05DMJDNLEJ@April?$AA@ 10027b48     libucrt:nlsdata.obj
 0002:00004b50       ??_C@_04CNLMGBGM@June?$AA@ 10027b50     libucrt:nlsdata.obj
 0002:00004b58       ??_C@_04MIEPOIFP@July?$AA@ 10027b58     libucrt:nlsdata.obj
 0002:00004b60       ??_C@_06LBBHFDDG@August?$AA@ 10027b60     libucrt:nlsdata.obj
 0002:00004b68       ??_C@_09BHHEALKD@September?$AA@ 10027b68     libucrt:nlsdata.obj
 0002:00004b74       ??_C@_07JJNFCEND@October?$AA@ 10027b74     libucrt:nlsdata.obj
 0002:00004b7c       ??_C@_08HCHEGEOA@November?$AA@ 10027b7c     libucrt:nlsdata.obj
 0002:00004b88       ??_C@_08EDHMEBNP@December?$AA@ 10027b88     libucrt:nlsdata.obj
 0002:00004b94       ??_C@_02DEDBPAFC@AM?$AA@   10027b94     libucrt:nlsdata.obj
 0002:00004b98       ??_C@_02CJNFDJBF@PM?$AA@   10027b98     libucrt:nlsdata.obj
 0002:00004b9c       ??_C@_08BPBNCDIB@MM?1dd?1yy?$AA@ 10027b9c     libucrt:nlsdata.obj
 0002:00004ba8       ??_C@_0BE@CKGJFCPC@dddd?0?5MMMM?5dd?0?5yyyy?$AA@ 10027ba8     libucrt:nlsdata.obj
 0002:00004bbc       ??_C@_08JCCMCCIL@HH?3mm?3ss?$AA@ 10027bbc     libucrt:nlsdata.obj
 0002:00004bc8       ??_C@_17MBGCMIPB@?$AAS?$AAu?$AAn?$AA?$AA@ 10027bc8     libucrt:nlsdata.obj
 0002:00004bd0       ??_C@_17KBOMKBF@?$AAM?$AAo?$AAn?$AA?$AA@ 10027bd0     libucrt:nlsdata.obj
 0002:00004bd8       ??_C@_17BMKGEGOJ@?$AAT?$AAu?$AAe?$AA?$AA@ 10027bd8     libucrt:nlsdata.obj
 0002:00004be0       ??_C@_17CJEDCEPE@?$AAW?$AAe?$AAd?$AA?$AA@ 10027be0     libucrt:nlsdata.obj
 0002:00004be8       ??_C@_17PDPHAADD@?$AAT?$AAh?$AAu?$AA?$AA@ 10027be8     libucrt:nlsdata.obj
 0002:00004bf0       ??_C@_17HFOLPPLP@?$AAF?$AAr?$AAi?$AA?$AA@ 10027bf0     libucrt:nlsdata.obj
 0002:00004bf8       ??_C@_17GGIBDPIH@?$AAS?$AAa?$AAt?$AA?$AA@ 10027bf8     libucrt:nlsdata.obj
 0002:00004c00       ??_C@_1O@IHNHDHPB@?$AAS?$AAu?$AAn?$AAd?$AAa?$AAy?$AA?$AA@ 10027c00     libucrt:nlsdata.obj
 0002:00004c10       ??_C@_1O@MMNBFLIA@?$AAM?$AAo?$AAn?$AAd?$AAa?$AAy?$AA?$AA@ 10027c10     libucrt:nlsdata.obj
 0002:00004c20       ??_C@_1BA@ENFBFFEK@?$AAT?$AAu?$AAe?$AAs?$AAd?$AAa?$AAy?$AA?$AA@ 10027c20     libucrt:nlsdata.obj
 0002:00004c30       ??_C@_1BE@EBOGMDOH@?$AAW?$AAe?$AAd?$AAn?$AAe?$AAs?$AAd?$AAa?$AAy?$AA?$AA@ 10027c30     libucrt:nlsdata.obj
 0002:00004c44       ??_C@_1BC@HHMNLIHE@?$AAT?$AAh?$AAu?$AAr?$AAs?$AAd?$AAa?$AAy?$AA?$AA@ 10027c44     libucrt:nlsdata.obj
 0002:00004c58       ??_C@_1O@PDICJHAG@?$AAF?$AAr?$AAi?$AAd?$AAa?$AAy?$AA?$AA@ 10027c58     libucrt:nlsdata.obj
 0002:00004c68       ??_C@_1BC@ENMNNPAJ@?$AAS?$AAa?$AAt?$AAu?$AAr?$AAd?$AAa?$AAy?$AA?$AA@ 10027c68     libucrt:nlsdata.obj
 0002:00004c7c       ??_C@_17DKNBKCHM@?$AAJ?$AAa?$AAn?$AA?$AA@ 10027c7c     libucrt:nlsdata.obj
 0002:00004c84       ??_C@_17LMDJEKJN@?$AAF?$AAe?$AAb?$AA?$AA@ 10027c84     libucrt:nlsdata.obj
 0002:00004c8c       ??_C@_17CKNLEDEC@?$AAM?$AAa?$AAr?$AA?$AA@ 10027c8c     libucrt:nlsdata.obj
 0002:00004c94       ??_C@_17LFPOIHDD@?$AAA?$AAp?$AAr?$AA?$AA@ 10027c94     libucrt:nlsdata.obj
 0002:00004c9c       ??_C@_17PNNKMEED@?$AAM?$AAa?$AAy?$AA?$AA@ 10027c9c     libucrt:nlsdata.obj
 0002:00004ca4       ??_C@_17KCJGOCPB@?$AAJ?$AAu?$AAn?$AA?$AA@ 10027ca4     libucrt:nlsdata.obj
 0002:00004cac       ??_C@_17IJPCKHK@?$AAJ?$AAu?$AAl?$AA?$AA@ 10027cac     libucrt:nlsdata.obj
 0002:00004cb4       ??_C@_17ICPELBCN@?$AAA?$AAu?$AAg?$AA?$AA@ 10027cb4     libucrt:nlsdata.obj
 0002:00004cbc       ??_C@_17HCHCOKMG@?$AAS?$AAe?$AAp?$AA?$AA@ 10027cbc     libucrt:nlsdata.obj
 0002:00004cc4       ??_C@_17FNLKOI@?$AAO?$AAc?$AAt?$AA?$AA@ 10027cc4     libucrt:nlsdata.obj
 0002:00004ccc       ??_C@_17BBDMLCIG@?$AAN?$AAo?$AAv?$AA?$AA@ 10027ccc     libucrt:nlsdata.obj
 0002:00004cd4       ??_C@_17EGKACKIF@?$AAD?$AAe?$AAc?$AA?$AA@ 10027cd4     libucrt:nlsdata.obj
 0002:00004cdc       ??_C@_1BA@EFMEIEBA@?$AAJ?$AAa?$AAn?$AAu?$AAa?$AAr?$AAy?$AA?$AA@ 10027cdc     libucrt:nlsdata.obj
 0002:00004cec       ??_C@_1BC@JGDDFFAM@?$AAF?$AAe?$AAb?$AAr?$AAu?$AAa?$AAr?$AAy?$AA?$AA@ 10027cec     libucrt:nlsdata.obj
 0002:00004d00       ??_C@_1M@IKEENEDF@?$AAM?$AAa?$AAr?$AAc?$AAh?$AA?$AA@ 10027d00     libucrt:nlsdata.obj
 0002:00004d0c       ??_C@_1M@GJNLMHFD@?$AAA?$AAp?$AAr?$AAi?$AAl?$AA?$AA@ 10027d0c     libucrt:nlsdata.obj
 0002:00004d18       ??_C@_19EPFLPGAP@?$AAJ?$AAu?$AAn?$AAe?$AA?$AA@ 10027d18     libucrt:nlsdata.obj
 0002:00004d24       ??_C@_19BIFMLPCD@?$AAJ?$AAu?$AAl?$AAy?$AA?$AA@ 10027d24     libucrt:nlsdata.obj
 0002:00004d30       ??_C@_1O@PAHLKOAC@?$AAA?$AAu?$AAg?$AAu?$AAs?$AAt?$AA?$AA@ 10027d30     libucrt:nlsdata.obj
 0002:00004d40       ??_C@_1BE@DKAAMBJL@?$AAS?$AAe?$AAp?$AAt?$AAe?$AAm?$AAb?$AAe?$AAr?$AA?$AA@ 10027d40     libucrt:nlsdata.obj
 0002:00004d54       ??_C@_1BA@EPANDLNG@?$AAO?$AAc?$AAt?$AAo?$AAb?$AAe?$AAr?$AA?$AA@ 10027d54     libucrt:nlsdata.obj
 0002:00004d64       ??_C@_1BC@BGLIFPF@?$AAN?$AAo?$AAv?$AAe?$AAm?$AAb?$AAe?$AAr?$AA?$AA@ 10027d64     libucrt:nlsdata.obj
 0002:00004d78       ??_C@_1BC@FEMKIFH@?$AAD?$AAe?$AAc?$AAe?$AAm?$AAb?$AAe?$AAr?$AA?$AA@ 10027d78     libucrt:nlsdata.obj
 0002:00004d8c       ??_C@_15ODEHAHHF@?$AAA?$AAM?$AA?$AA@ 10027d8c     libucrt:nlsdata.obj
 0002:00004d94       ??_C@_15CLMNNGEL@?$AAP?$AAM?$AA?$AA@ 10027d94     libucrt:nlsdata.obj
 0002:00004d9c       ??_C@_1BC@IEBCMHCM@?$AAM?$AAM?$AA?1?$AAd?$AAd?$AA?1?$AAy?$AAy?$AA?$AA@ 10027d9c     libucrt:nlsdata.obj
 0002:00004db0       ??_C@_1CI@KNAKOEBC@?$AAd?$AAd?$AAd?$AAd?$AA?0?$AA?5?$AAM?$AAM?$AAM?$AAM?$AA?5?$AAd?$AAd?$AA?0?$AA?5?$AAy?$AAy?$AAy?$AAy?$AA?$AA@ 10027db0     libucrt:nlsdata.obj
 0002:00004dd8       ??_C@_1BC@GDGBMEMK@?$AAH?$AAH?$AA?3?$AAm?$AAm?$AA?3?$AAs?$AAs?$AA?$AA@ 10027dd8     libucrt:nlsdata.obj
 0002:00004dec       ??_C@_1M@BMHNFIME@?$AAe?$AAn?$AA?9?$AAU?$AAS?$AA?$AA@ 10027dec     libucrt:nlsdata.obj
 0002:00004ee0       ??_C@_03KHJOGHMM@exp?$AA@  10027ee0     libucrt:fpexcept.obj
 0002:00004ee4       ??_C@_03JGHBODFD@pow?$AA@  10027ee4     libucrt:fpexcept.obj
 0002:00004ee8       ??_C@_03MGHMBJCF@log?$AA@  10027ee8     libucrt:fpexcept.obj
 0002:00004eec       ??_C@_05HGHHAHAP@log10?$AA@ 10027eec     libucrt:fpexcept.obj
 0002:00004ef4       ??_C@_04COOMCNPB@sinh?$AA@ 10027ef4     libucrt:fpexcept.obj
 0002:00004efc       ??_C@_04HPJJNFIM@cosh?$AA@ 10027efc     libucrt:fpexcept.obj
 0002:00004f04       ??_C@_04FJHINJAO@tanh?$AA@ 10027f04     libucrt:fpexcept.obj
 0002:00004f0c       ??_C@_04FIHNOPOL@asin?$AA@ 10027f0c     libucrt:fpexcept.obj
 0002:00004f14       ??_C@_04PDIFKINK@acos?$AA@ 10027f14     libucrt:fpexcept.obj
 0002:00004f1c       ??_C@_04MLLJIGOK@atan?$AA@ 10027f1c     libucrt:fpexcept.obj
 0002:00004f24       ??_C@_05KNGEOGJB@atan2?$AA@ 10027f24     libucrt:fpexcept.obj
 0002:00004f2c       ??_C@_04EIAKFFMI@sqrt?$AA@ 10027f2c     libucrt:fpexcept.obj
 0002:00004f34       ??_C@_03BLEJJJBH@sin?$AA@  10027f34     libucrt:fpexcept.obj
 0002:00004f38       ??_C@_03LALBNOCG@cos?$AA@  10027f38     libucrt:fpexcept.obj
 0002:00004f3c       ??_C@_03IIINPABG@tan?$AA@  10027f3c     libucrt:fpexcept.obj
 0002:00004f40       ??_C@_04GFPJNGEK@ceil?$AA@ 10027f40     libucrt:fpexcept.obj
 0002:00004f48       ??_C@_05PBJFFIGL@floor?$AA@ 10027f48     libucrt:fpexcept.obj
 0002:00004f50       ??_C@_04ODHECPBC@fabs?$AA@ 10027f50     libucrt:fpexcept.obj
 0002:00004f58       ??_C@_04EHEDPDJG@modf?$AA@ 10027f58     libucrt:fpexcept.obj
 0002:00004f60       ??_C@_05CEJMAHNP@ldexp?$AA@ 10027f60     libucrt:fpexcept.obj
 0002:00004f68       ??_C@_05KBKMEMPO@_cabs?$AA@ 10027f68     libucrt:fpexcept.obj
 0002:00004f70       ??_C@_06MEIMCGCF@_hypot?$AA@ 10027f70     libucrt:fpexcept.obj
 0002:00004f78       ??_C@_04KEPJIHGP@fmod?$AA@ 10027f78     libucrt:fpexcept.obj
 0002:00004f80       ??_C@_05GKKHEGJL@frexp?$AA@ 10027f80     libucrt:fpexcept.obj
 0002:00004f88       ??_C@_03MJLDFKDL@_y0?$AA@  10027f88     libucrt:fpexcept.obj
 0002:00004f8c       ??_C@_03NAKIGLHK@_y1?$AA@  10027f8c     libucrt:fpexcept.obj
 0002:00004f90       ??_C@_03ONILCKOB@_yn?$AA@  10027f90     libucrt:fpexcept.obj
 0002:00004f94       ??_C@_05JGDBENOH@_logb?$AA@ 10027f94     libucrt:fpexcept.obj
 0002:00004f9c       ??_C@_0L@KDOEJCKC@_nextafter?$AA@ 10027f9c     libucrt:fpexcept.obj
 0002:00004fa8       __d_inf                    10027fa8     libucrt:util.obj
 0002:00004fb0       __d_max                    10027fb0     libucrt:util.obj
 0002:00004fb8       __d_mzero                  10027fb8     libucrt:util.obj
 0002:00005028       ??_C@_1EA@JGEFHKEI@?$AAa?$AAp?$AAi?$AA?9?$AAm?$AAs?$AA?9?$AAw?$AAi?$AAn?$AA?9?$AAc?$AAo?$AAr?$AAe?$AA?9?$AAd?$AAa?$AAt?$AAe?$AAt?$AAi?$AAm?$AAe?$AA?9?$AAl?$AA1?$AA?9?$AA1?$AA?9?$AA1?$AA?$AA@ 10028028     libucrt:winapi_thunks.obj
 0002:00005068       ??_C@_1DM@KHCHBNEB@?$AAa?$AAp?$AAi?$AA?9?$AAm?$AAs?$AA?9?$AAw?$AAi?$AAn?$AA?9?$AAc?$AAo?$AAr?$AAe?$AA?9?$AAf?$AAi?$AAb?$AAe?$AAr?$AAs?$AA?9?$AAl?$AA1?$AA?9?$AA1?$AA?9?$AA1?$AA?$AA@ 10028068     libucrt:winapi_thunks.obj
 0002:000050a4       ??_C@_1DI@IJCEHOCB@?$AAa?$AAp?$AAi?$AA?9?$AAm?$AAs?$AA?9?$AAw?$AAi?$AAn?$AA?9?$AAc?$AAo?$AAr?$AAe?$AA?9?$AAf?$AAi?$AAl?$AAe?$AA?9?$AAl?$AA1?$AA?9?$AA2?$AA?9?$AA2?$AA?$AA@ 100280a4     libucrt:winapi_thunks.obj
 0002:000050e0       ??_C@_1EI@MPIAOHOC@?$AAa?$AAp?$AAi?$AA?9?$AAm?$AAs?$AA?9?$AAw?$AAi?$AAn?$AA?9?$AAc?$AAo?$AAr?$AAe?$AA?9?$AAl?$AAo?$AAc?$AAa?$AAl?$AAi?$AAz?$AAa?$AAt?$AAi?$AAo?$AAn?$AA?9?$AAl?$AA1?$AA?9@ 100280e0     libucrt:winapi_thunks.obj
 0002:00005128       ??_C@_1FK@FPHCKFIE@?$AAa?$AAp?$AAi?$AA?9?$AAm?$AAs?$AA?9?$AAw?$AAi?$AAn?$AA?9?$AAc?$AAo?$AAr?$AAe?$AA?9?$AAl?$AAo?$AAc?$AAa?$AAl?$AAi?$AAz?$AAa?$AAt?$AAi?$AAo?$AAn?$AA?9?$AAo?$AAb?$AAs@ 10028128     libucrt:winapi_thunks.obj
 0002:00005188       ??_C@_1EM@DILCGIIO@?$AAa?$AAp?$AAi?$AA?9?$AAm?$AAs?$AA?9?$AAw?$AAi?$AAn?$AA?9?$AAc?$AAo?$AAr?$AAe?$AA?9?$AAp?$AAr?$AAo?$AAc?$AAe?$AAs?$AAs?$AAt?$AAh?$AAr?$AAe?$AAa?$AAd?$AAs?$AA?9?$AAl@ 10028188     libucrt:winapi_thunks.obj
 0002:000051d4       ??_C@_1DM@LNCGDDPN@?$AAa?$AAp?$AAi?$AA?9?$AAm?$AAs?$AA?9?$AAw?$AAi?$AAn?$AA?9?$AAc?$AAo?$AAr?$AAe?$AA?9?$AAs?$AAt?$AAr?$AAi?$AAn?$AAg?$AA?9?$AAl?$AA1?$AA?9?$AA1?$AA?9?$AA0?$AA?$AA@ 100281d4     libucrt:winapi_thunks.obj
 0002:00005210       ??_C@_1DK@LPPGFMPP@?$AAa?$AAp?$AAi?$AA?9?$AAm?$AAs?$AA?9?$AAw?$AAi?$AAn?$AA?9?$AAc?$AAo?$AAr?$AAe?$AA?9?$AAs?$AAy?$AAn?$AAc?$AAh?$AA?9?$AAl?$AA1?$AA?9?$AA2?$AA?9?$AA0?$AA?$AA@ 10028210     libucrt:winapi_thunks.obj
 0002:0000524c       ??_C@_1DO@FPAPJEMD@?$AAa?$AAp?$AAi?$AA?9?$AAm?$AAs?$AA?9?$AAw?$AAi?$AAn?$AA?9?$AAc?$AAo?$AAr?$AAe?$AA?9?$AAs?$AAy?$AAs?$AAi?$AAn?$AAf?$AAo?$AA?9?$AAl?$AA1?$AA?9?$AA2?$AA?9?$AA1?$AA?$AA@ 1002824c     libucrt:winapi_thunks.obj
 0002:0000528c       ??_C@_1DK@NDHNAHIO@?$AAa?$AAp?$AAi?$AA?9?$AAm?$AAs?$AA?9?$AAw?$AAi?$AAn?$AA?9?$AAc?$AAo?$AAr?$AAe?$AA?9?$AAw?$AAi?$AAn?$AAr?$AAt?$AA?9?$AAl?$AA1?$AA?9?$AA1?$AA?9?$AA0?$AA?$AA@ 1002828c     libucrt:winapi_thunks.obj
 0002:000052c8       ??_C@_1DM@KGHDGBCM@?$AAa?$AAp?$AAi?$AA?9?$AAm?$AAs?$AA?9?$AAw?$AAi?$AAn?$AA?9?$AAc?$AAo?$AAr?$AAe?$AA?9?$AAx?$AAs?$AAt?$AAa?$AAt?$AAe?$AA?9?$AAl?$AA2?$AA?9?$AA1?$AA?9?$AA0?$AA?$AA@ 100282c8     libucrt:winapi_thunks.obj
 0002:00005308       ??_C@_1EO@IJIOEFOH@?$AAa?$AAp?$AAi?$AA?9?$AAm?$AAs?$AA?9?$AAw?$AAi?$AAn?$AA?9?$AAr?$AAt?$AAc?$AAo?$AAr?$AAe?$AA?9?$AAn?$AAt?$AAu?$AAs?$AAe?$AAr?$AA?9?$AAw?$AAi?$AAn?$AAd?$AAo?$AAw?$AA?9@ 10028308     libucrt:winapi_thunks.obj
 0002:00005358       ??_C@_1FG@HHGEKANL@?$AAa?$AAp?$AAi?$AA?9?$AAm?$AAs?$AA?9?$AAw?$AAi?$AAn?$AA?9?$AAs?$AAe?$AAc?$AAu?$AAr?$AAi?$AAt?$AAy?$AA?9?$AAs?$AAy?$AAs?$AAt?$AAe?$AAm?$AAf?$AAu?$AAn?$AAc?$AAt?$AAi@ 10028358     libucrt:winapi_thunks.obj
 0002:000053b0       ??_C@_1EG@DBIOJECG@?$AAe?$AAx?$AAt?$AA?9?$AAm?$AAs?$AA?9?$AAw?$AAi?$AAn?$AA?9?$AAn?$AAt?$AAu?$AAs?$AAe?$AAr?$AA?9?$AAd?$AAi?$AAa?$AAl?$AAo?$AAg?$AAb?$AAo?$AAx?$AA?9?$AAl?$AA1?$AA?9?$AA1@ 100283b0     libucrt:winapi_thunks.obj
 0002:000053f8       ??_C@_1EO@FIHMJCLF@?$AAe?$AAx?$AAt?$AA?9?$AAm?$AAs?$AA?9?$AAw?$AAi?$AAn?$AA?9?$AAn?$AAt?$AAu?$AAs?$AAe?$AAr?$AA?9?$AAw?$AAi?$AAn?$AAd?$AAo?$AAw?$AAs?$AAt?$AAa?$AAt?$AAi?$AAo?$AAn?$AA?9@ 100283f8     libucrt:winapi_thunks.obj
 0002:00005448       ??_C@_1BC@DNHGCMLG@?$AAa?$AAd?$AAv?$AAa?$AAp?$AAi?$AA3?$AA2?$AA?$AA@ 10028448     libucrt:winapi_thunks.obj
 0002:0000545c       ??_C@_1BC@GDMECMAK@?$AAk?$AAe?$AAr?$AAn?$AAe?$AAl?$AA3?$AA2?$AA?$AA@ 1002845c     libucrt:winapi_thunks.obj
 0002:00005470       ??_C@_1M@OAIMIKLP@?$AAn?$AAt?$AAd?$AAl?$AAl?$AA?$AA@ 10028470     libucrt:winapi_thunks.obj
 0002:00005480       ??_C@_1EG@DPGNFKGC@?$AAa?$AAp?$AAi?$AA?9?$AAm?$AAs?$AA?9?$AAw?$AAi?$AAn?$AA?9?$AAa?$AAp?$AAp?$AAm?$AAo?$AAd?$AAe?$AAl?$AA?9?$AAr?$AAu?$AAn?$AAt?$AAi?$AAm?$AAe?$AA?9?$AAl?$AA1?$AA?9?$AA1@ 10028480     libucrt:winapi_thunks.obj
 0002:000054c8       ??_C@_1O@BCCLBEOE@?$AAu?$AAs?$AAe?$AAr?$AA3?$AA2?$AA?$AA@ 100284c8     libucrt:winapi_thunks.obj
 0002:000054d8       ??_C@_1BA@PFFKHIOG@?$AAa?$AAp?$AAi?$AA?9?$AAm?$AAs?$AA?9?$AA?$AA@ 100284d8     libucrt:winapi_thunks.obj
 0002:000054e8       ??_C@_1BA@IAIFMGEF@?$AAe?$AAx?$AAt?$AA?9?$AAm?$AAs?$AA?9?$AA?$AA@ 100284e8     libucrt:winapi_thunks.obj
 0002:000054fc       ??_C@_0BA@FHFNEAED@AreFileApisANSI?$AA@ 100284fc     libucrt:winapi_thunks.obj
 0002:00005514       ??_C@_0BA@IHGNDAEB@CompareStringEx?$AA@ 10028514     libucrt:winapi_thunks.obj
 0002:0000552c       ??_C@_0BE@LJANKFHF@EnumSystemLocalesEx?$AA@ 1002852c     libucrt:winapi_thunks.obj
 0002:00005548       ??_C@_08KNHFBNJ@FlsAlloc?$AA@ 10028548     libucrt:winapi_thunks.obj
 0002:0000555c       ??_C@_07PEJMOBNF@FlsFree?$AA@ 1002855c     libucrt:winapi_thunks.obj
 0002:0000556c       ??_C@_0M@GDNOONDI@FlsGetValue?$AA@ 1002856c     libucrt:winapi_thunks.obj
 0002:00005580       ??_C@_0M@JCPCPOEF@FlsSetValue?$AA@ 10028580     libucrt:winapi_thunks.obj
 0002:00005594       ??_C@_0BA@EPCJIIPD@GetDateFormatEx?$AA@ 10028594     libucrt:winapi_thunks.obj
 0002:000055ac       ??_C@_0BA@ONOKGCMP@GetLocaleInfoEx?$AA@ 100285ac     libucrt:winapi_thunks.obj
 0002:000055c4       ??_C@_0BA@CIJJKCJJ@GetTimeFormatEx?$AA@ 100285c4     libucrt:winapi_thunks.obj
 0002:000055dc       ??_C@_0BJ@PBCCBIPI@GetUserDefaultLocaleName?$AA@ 100285dc     libucrt:winapi_thunks.obj
 0002:00005600       ??_C@_0BM@HCFOFFN@InitializeCriticalSectionEx?$AA@ 10028600     libucrt:winapi_thunks.obj
 0002:00005624       ??_C@_0BC@CELBKLLA@IsValidLocaleName?$AA@ 10028624     libucrt:winapi_thunks.obj
 0002:00005640       ??_C@_0O@KKBNKAPF@LCMapStringEx?$AA@ 10028640     libucrt:winapi_thunks.obj
 0002:00005658       ??_C@_0BB@CDHDDLLP@LCIDToLocaleName?$AA@ 10028658     libucrt:winapi_thunks.obj
 0002:00005674       ??_C@_0BB@HBDEELFH@LocaleNameToLCID?$AA@ 10028674     libucrt:winapi_thunks.obj
 0002:0000568c       ??_C@_0CF@OJOFEIGO@AppPolicyGetProcessTerminationMe@ 1002868c     libucrt:winapi_thunks.obj
 0002:00005780       __infinity                 10028780     libucrt:87tran.obj
 0002:0000578a       __minfinity                1002878a     libucrt:87tran.obj
 0002:00005794       __logemax                  10028794     libucrt:87tran.obj
 0002:000057ba       __OP_EXPjmptab             100287ba     libucrt:87tran.obj
 0002:000057e0       __indefinite               100287e0     libucrt:87disp.obj
 0002:000057ea       __piby2                    100287ea     libucrt:87disp.obj
 0002:000057f4       __piby4                    100287f4     libucrt:87disp.obj
 0002:00005828       __DEFAULT_CW_in_mem        10028828     libucrt:common.obj
 0002:0000582a       __pi_by_2_to_61            1002882a     libucrt:common.obj
 0002:00005868       __real@3fe0000000000000    10028868     libucrt:powhlp.obj
 0002:00005880       ??_C@_1M@HPNHIDJI@?$AAj?$AAa?$AA?9?$AAJ?$AAP?$AA?$AA@ 10028880     libucrt:mbctype.obj
 0002:0000588c       ??_C@_1M@BIBDDEMK@?$AAz?$AAh?$AA?9?$AAC?$AAN?$AA?$AA@ 1002888c     libucrt:mbctype.obj
 0002:00005898       ??_C@_1M@JLOOOEGK@?$AAk?$AAo?$AA?9?$AAK?$AAR?$AA?$AA@ 10028898     libucrt:mbctype.obj
 0002:000058a4       ??_C@_1M@CLNBBOPM@?$AAz?$AAh?$AA?9?$AAT?$AAW?$AA?$AA@ 100288a4     libucrt:mbctype.obj
 0002:000058b0       ??_C@_00CNPNBAHC@?$AA@     100288b0     libucrt:mbrtowc.obj
 0002:000058b8       ___acrt_rg_language        100288b8     libucrt:get_qualified_locale.obj
 0002:00005bc4       ___acrt_rg_language_count  10028bc4     libucrt:get_qualified_locale.obj
 0002:00005bc8       ___acrt_rg_country         10028bc8     libucrt:get_qualified_locale.obj
 0002:00005cdc       ___acrt_rg_country_count   10028cdc     libucrt:get_qualified_locale.obj
 0002:00005ce0       ??_C@_1BC@LLOKLNP@?$AAa?$AAm?$AAe?$AAr?$AAi?$AAc?$AAa?$AAn?$AA?$AA@ 10028ce0     libucrt:get_qualified_locale.obj
 0002:00005cf4       ??_C@_1CC@HEIGCDGG@?$AAa?$AAm?$AAe?$AAr?$AAi?$AAc?$AAa?$AAn?$AA?5?$AAe?$AAn?$AAg?$AAl?$AAi?$AAs?$AAh?$AA?$AA@ 10028cf4     libucrt:get_qualified_locale.obj
 0002:00005d18       ??_C@_1CC@IHCNOMIN@?$AAa?$AAm?$AAe?$AAr?$AAi?$AAc?$AAa?$AAn?$AA?9?$AAe?$AAn?$AAg?$AAl?$AAi?$AAs?$AAh?$AA?$AA@ 10028d18     libucrt:get_qualified_locale.obj
 0002:00005d3c       ??_C@_1BG@GKAGPCGG@?$AAa?$AAu?$AAs?$AAt?$AAr?$AAa?$AAl?$AAi?$AAa?$AAn?$AA?$AA@ 10028d3c     libucrt:get_qualified_locale.obj
 0002:00005d54       ??_C@_1BA@GMENCENF@?$AAb?$AAe?$AAl?$AAg?$AAi?$AAa?$AAn?$AA?$AA@ 10028d54     libucrt:get_qualified_locale.obj
 0002:00005d64       ??_C@_1BC@PJMIIAAN@?$AAc?$AAa?$AAn?$AAa?$AAd?$AAi?$AAa?$AAn?$AA?$AA@ 10028d64     libucrt:get_qualified_locale.obj
 0002:00005d78       ??_C@_17NOIMNFBF@?$AAc?$AAh?$AAh?$AA?$AA@ 10028d78     libucrt:get_qualified_locale.obj
 0002:00005d80       ??_C@_17GGDALCHA@?$AAc?$AAh?$AAi?$AA?$AA@ 10028d80     libucrt:get_qualified_locale.obj
 0002:00005d88       ??_C@_1BA@NPNJKIBL@?$AAc?$AAh?$AAi?$AAn?$AAe?$AAs?$AAe?$AA?$AA@ 10028d88     libucrt:get_qualified_locale.obj
 0002:00005d98       ??_C@_1CC@DINBAMMJ@?$AAc?$AAh?$AAi?$AAn?$AAe?$AAs?$AAe?$AA?9?$AAh?$AAo?$AAn?$AAg?$AAk?$AAo?$AAn?$AAg?$AA?$AA@ 10028d98     libucrt:get_qualified_locale.obj
 0002:00005dbc       ??_C@_1CG@IOBJPACO@?$AAc?$AAh?$AAi?$AAn?$AAe?$AAs?$AAe?$AA?9?$AAs?$AAi?$AAm?$AAp?$AAl?$AAi?$AAf?$AAi?$AAe?$AAd?$AA?$AA@ 10028dbc     libucrt:get_qualified_locale.obj
 0002:00005de4       ??_C@_1CE@GAJNDCKG@?$AAc?$AAh?$AAi?$AAn?$AAe?$AAs?$AAe?$AA?9?$AAs?$AAi?$AAn?$AAg?$AAa?$AAp?$AAo?$AAr?$AAe?$AA?$AA@ 10028de4     libucrt:get_qualified_locale.obj
 0002:00005e08       ??_C@_1CI@PAJPIOOD@?$AAc?$AAh?$AAi?$AAn?$AAe?$AAs?$AAe?$AA?9?$AAt?$AAr?$AAa?$AAd?$AAi?$AAt?$AAi?$AAo?$AAn?$AAa?$AAl?$AA?$AA@ 10028e08     libucrt:get_qualified_locale.obj
 0002:00005e30       ??_C@_1BM@NILJBMMD@?$AAd?$AAu?$AAt?$AAc?$AAh?$AA?9?$AAb?$AAe?$AAl?$AAg?$AAi?$AAa?$AAn?$AA?$AA@ 10028e30     libucrt:get_qualified_locale.obj
 0002:00005e4c       ??_C@_1CC@OOJPJNEJ@?$AAe?$AAn?$AAg?$AAl?$AAi?$AAs?$AAh?$AA?9?$AAa?$AAm?$AAe?$AAr?$AAi?$AAc?$AAa?$AAn?$AA?$AA@ 10028e4c     libucrt:get_qualified_locale.obj
 0002:00005e70       ??_C@_1BI@IOLFEEM@?$AAe?$AAn?$AAg?$AAl?$AAi?$AAs?$AAh?$AA?9?$AAa?$AAu?$AAs?$AA?$AA@ 10028e70     libucrt:get_qualified_locale.obj
 0002:00005e88       ??_C@_1BO@HFFNLENJ@?$AAe?$AAn?$AAg?$AAl?$AAi?$AAs?$AAh?$AA?9?$AAb?$AAe?$AAl?$AAi?$AAz?$AAe?$AA?$AA@ 10028e88     libucrt:get_qualified_locale.obj
 0002:00005ea8       ??_C@_1BI@HAPKJMPO@?$AAe?$AAn?$AAg?$AAl?$AAi?$AAs?$AAh?$AA?9?$AAc?$AAa?$AAn?$AA?$AA@ 10028ea8     libucrt:get_qualified_locale.obj
 0002:00005ec0       ??_C@_1CE@HLNDMIOJ@?$AAe?$AAn?$AAg?$AAl?$AAi?$AAs?$AAh?$AA?9?$AAc?$AAa?$AAr?$AAi?$AAb?$AAb?$AAe?$AAa?$AAn?$AA?$AA@ 10028ec0     libucrt:get_qualified_locale.obj
 0002:00005ee4       ??_C@_1BI@LDHJHHAC@?$AAe?$AAn?$AAg?$AAl?$AAi?$AAs?$AAh?$AA?9?$AAi?$AAr?$AAe?$AA?$AA@ 10028ee4     libucrt:get_qualified_locale.obj
 0002:00005efc       ??_C@_1CA@NJMMCFOC@?$AAe?$AAn?$AAg?$AAl?$AAi?$AAs?$AAh?$AA?9?$AAj?$AAa?$AAm?$AAa?$AAi?$AAc?$AAa?$AA?$AA@ 10028efc     libucrt:get_qualified_locale.obj
 0002:00005f1c       ??_C@_1BG@BHJEBBGG@?$AAe?$AAn?$AAg?$AAl?$AAi?$AAs?$AAh?$AA?9?$AAn?$AAz?$AA?$AA@ 10028f1c     libucrt:get_qualified_locale.obj
 0002:00005f34       ??_C@_1CK@FGOEJJCO@?$AAe?$AAn?$AAg?$AAl?$AAi?$AAs?$AAh?$AA?9?$AAs?$AAo?$AAu?$AAt?$AAh?$AA?5?$AAa?$AAf?$AAr?$AAi?$AAc?$AAa?$AA?$AA@ 10028f34     libucrt:get_qualified_locale.obj
 0002:00005f60       ??_C@_1DE@PDBJPCJ@?$AAe?$AAn?$AAg?$AAl?$AAi?$AAs?$AAh?$AA?9?$AAt?$AAr?$AAi?$AAn?$AAi?$AAd?$AAa?$AAd?$AA?5?$AAy?$AA?5?$AAt?$AAo?$AAb?$AAa?$AAg?$AAo?$AA?$AA@ 10028f60     libucrt:get_qualified_locale.obj
 0002:00005f94       ??_C@_1BG@JGCANDME@?$AAe?$AAn?$AAg?$AAl?$AAi?$AAs?$AAh?$AA?9?$AAu?$AAk?$AA?$AA@ 10028f94     libucrt:get_qualified_locale.obj
 0002:00005fac       ??_C@_1BG@DINKMLE@?$AAe?$AAn?$AAg?$AAl?$AAi?$AAs?$AAh?$AA?9?$AAu?$AAs?$AA?$AA@ 10028fac     libucrt:get_qualified_locale.obj
 0002:00005fc4       ??_C@_1BI@NMFDBHJE@?$AAe?$AAn?$AAg?$AAl?$AAi?$AAs?$AAh?$AA?9?$AAu?$AAs?$AAa?$AA?$AA@ 10028fc4     libucrt:get_qualified_locale.obj
 0002:00005fdc       ??_C@_1BO@OIHKJKII@?$AAf?$AAr?$AAe?$AAn?$AAc?$AAh?$AA?9?$AAb?$AAe?$AAl?$AAg?$AAi?$AAa?$AAn?$AA?$AA@ 10028fdc     libucrt:get_qualified_locale.obj
 0002:00005ffc       ??_C@_1CA@NKAELJKI@?$AAf?$AAr?$AAe?$AAn?$AAc?$AAh?$AA?9?$AAc?$AAa?$AAn?$AAa?$AAd?$AAi?$AAa?$AAn?$AA?$AA@ 10028ffc     libucrt:get_qualified_locale.obj
 0002:0000601c       ??_C@_1CE@MGKCNLGN@?$AAf?$AAr?$AAe?$AAn?$AAc?$AAh?$AA?9?$AAl?$AAu?$AAx?$AAe?$AAm?$AAb?$AAo?$AAu?$AAr?$AAg?$AA?$AA@ 1002901c     libucrt:get_qualified_locale.obj
 0002:00006040       ??_C@_1BK@CEGEAILM@?$AAf?$AAr?$AAe?$AAn?$AAc?$AAh?$AA?9?$AAs?$AAw?$AAi?$AAs?$AAs?$AA?$AA@ 10029040     libucrt:get_qualified_locale.obj
 0002:0000605c       ??_C@_1CA@PAFKEOCC@?$AAg?$AAe?$AAr?$AAm?$AAa?$AAn?$AA?9?$AAa?$AAu?$AAs?$AAt?$AAr?$AAi?$AAa?$AAn?$AA?$AA@ 1002905c     libucrt:get_qualified_locale.obj
 0002:0000607c       ??_C@_1CI@HCFHGOFD@?$AAg?$AAe?$AAr?$AAm?$AAa?$AAn?$AA?9?$AAl?$AAi?$AAc?$AAh?$AAt?$AAe?$AAn?$AAs?$AAt?$AAe?$AAi?$AAn?$AA?$AA@ 1002907c     libucrt:get_qualified_locale.obj
 0002:000060a4       ??_C@_1CE@FEDDNPDG@?$AAg?$AAe?$AAr?$AAm?$AAa?$AAn?$AA?9?$AAl?$AAu?$AAx?$AAe?$AAm?$AAb?$AAo?$AAu?$AAr?$AAg?$AA?$AA@ 100290a4     libucrt:get_qualified_locale.obj
 0002:000060c8       ??_C@_1BK@LIMINNMN@?$AAg?$AAe?$AAr?$AAm?$AAa?$AAn?$AA?9?$AAs?$AAw?$AAi?$AAs?$AAs?$AA?$AA@ 100290c8     libucrt:get_qualified_locale.obj
 0002:000060e4       ??_C@_1BM@LGMDBEPD@?$AAi?$AAr?$AAi?$AAs?$AAh?$AA?9?$AAe?$AAn?$AAg?$AAl?$AAi?$AAs?$AAh?$AA?$AA@ 100290e4     libucrt:get_qualified_locale.obj
 0002:00006100       ??_C@_1BM@NNCFBAEE@?$AAi?$AAt?$AAa?$AAl?$AAi?$AAa?$AAn?$AA?9?$AAs?$AAw?$AAi?$AAs?$AAs?$AA?$AA@ 10029100     libucrt:get_qualified_locale.obj
 0002:0000611c       ??_C@_1BE@FEDJNPIB@?$AAn?$AAo?$AAr?$AAw?$AAe?$AAg?$AAi?$AAa?$AAn?$AA?$AA@ 1002911c     libucrt:get_qualified_locale.obj
 0002:00006130       ??_C@_1CC@CILKDEIE@?$AAn?$AAo?$AAr?$AAw?$AAe?$AAg?$AAi?$AAa?$AAn?$AA?9?$AAb?$AAo?$AAk?$AAm?$AAa?$AAl?$AA?$AA@ 10029130     libucrt:get_qualified_locale.obj
 0002:00006154       ??_C@_1CE@DHMMHEPL@?$AAn?$AAo?$AAr?$AAw?$AAe?$AAg?$AAi?$AAa?$AAn?$AA?9?$AAn?$AAy?$AAn?$AAo?$AAr?$AAs?$AAk?$AA?$AA@ 10029154     libucrt:get_qualified_locale.obj
 0002:00006178       ??_C@_1CK@OPNMHECD@?$AAp?$AAo?$AAr?$AAt?$AAu?$AAg?$AAu?$AAe?$AAs?$AAe?$AA?9?$AAb?$AAr?$AAa?$AAz?$AAi?$AAl?$AAi?$AAa?$AAn?$AA?$AA@ 10029178     libucrt:get_qualified_locale.obj
 0002:000061a4       ??_C@_1CE@KEEHCDB@?$AAs?$AAp?$AAa?$AAn?$AAi?$AAs?$AAh?$AA?9?$AAa?$AAr?$AAg?$AAe?$AAn?$AAt?$AAi?$AAn?$AAa?$AA?$AA@ 100291a4     libucrt:get_qualified_locale.obj
 0002:000061c8       ??_C@_1CA@GIAOLHJD@?$AAs?$AAp?$AAa?$AAn?$AAi?$AAs?$AAh?$AA?9?$AAb?$AAo?$AAl?$AAi?$AAv?$AAi?$AAa?$AA?$AA@ 100291c8     libucrt:get_qualified_locale.obj
 0002:000061e8       ??_C@_1BM@OJNDFNPD@?$AAs?$AAp?$AAa?$AAn?$AAi?$AAs?$AAh?$AA?9?$AAc?$AAh?$AAi?$AAl?$AAe?$AA?$AA@ 100291e8     libucrt:get_qualified_locale.obj
 0002:00006204       ??_C@_1CC@OCOLPALL@?$AAs?$AAp?$AAa?$AAn?$AAi?$AAs?$AAh?$AA?9?$AAc?$AAo?$AAl?$AAo?$AAm?$AAb?$AAi?$AAa?$AA?$AA@ 10029204     libucrt:get_qualified_locale.obj
 0002:00006228       ??_C@_1CG@BPOFMKBB@?$AAs?$AAp?$AAa?$AAn?$AAi?$AAs?$AAh?$AA?9?$AAc?$AAo?$AAs?$AAt?$AAa?$AA?5?$AAr?$AAi?$AAc?$AAa?$AA?$AA@ 10029228     libucrt:get_qualified_locale.obj
 0002:00006250       ??_C@_1DG@IGOBAPBB@?$AAs?$AAp?$AAa?$AAn?$AAi?$AAs?$AAh?$AA?9?$AAd?$AAo?$AAm?$AAi?$AAn?$AAi?$AAc?$AAa?$AAn?$AA?5?$AAr?$AAe?$AAp?$AAu?$AAb?$AAl?$AAi?$AAc?$AA?$AA@ 10029250     libucrt:get_qualified_locale.obj
 0002:00006288       ??_C@_1CA@JHAPGEGI@?$AAs?$AAp?$AAa?$AAn?$AAi?$AAs?$AAh?$AA?9?$AAe?$AAc?$AAu?$AAa?$AAd?$AAo?$AAr?$AA?$AA@ 10029288     libucrt:get_qualified_locale.obj
 0002:000062a8       ??_C@_1CI@LAPALJPP@?$AAs?$AAp?$AAa?$AAn?$AAi?$AAs?$AAh?$AA?9?$AAe?$AAl?$AA?5?$AAs?$AAa?$AAl?$AAv?$AAa?$AAd?$AAo?$AAr?$AA?$AA@ 100292a8     libucrt:get_qualified_locale.obj
 0002:000062d0       ??_C@_1CE@PDGBOFOM@?$AAs?$AAp?$AAa?$AAn?$AAi?$AAs?$AAh?$AA?9?$AAg?$AAu?$AAa?$AAt?$AAe?$AAm?$AAa?$AAl?$AAa?$AA?$AA@ 100292d0     libucrt:get_qualified_locale.obj
 0002:000062f4       ??_C@_1CC@NBEBAODI@?$AAs?$AAp?$AAa?$AAn?$AAi?$AAs?$AAh?$AA?9?$AAh?$AAo?$AAn?$AAd?$AAu?$AAr?$AAa?$AAs?$AA?$AA@ 100292f4     libucrt:get_qualified_locale.obj
 0002:00006318       ??_C@_1CA@LLKGHBMF@?$AAs?$AAp?$AAa?$AAn?$AAi?$AAs?$AAh?$AA?9?$AAm?$AAe?$AAx?$AAi?$AAc?$AAa?$AAn?$AA?$AA@ 10029318     libucrt:get_qualified_locale.obj
 0002:00006338       ??_C@_1BO@LKNDOIGD@?$AAs?$AAp?$AAa?$AAn?$AAi?$AAs?$AAh?$AA?9?$AAm?$AAo?$AAd?$AAe?$AAr?$AAn?$AA?$AA@ 10029338     libucrt:get_qualified_locale.obj
 0002:00006358       ??_C@_1CE@NMDMOEEB@?$AAs?$AAp?$AAa?$AAn?$AAi?$AAs?$AAh?$AA?9?$AAn?$AAi?$AAc?$AAa?$AAr?$AAa?$AAg?$AAu?$AAa?$AA?$AA@ 10029358     libucrt:get_qualified_locale.obj
 0002:0000637c       ??_C@_1BO@LLCBEJGB@?$AAs?$AAp?$AAa?$AAn?$AAi?$AAs?$AAh?$AA?9?$AAp?$AAa?$AAn?$AAa?$AAm?$AAa?$AA?$AA@ 1002937c     libucrt:get_qualified_locale.obj
 0002:0000639c       ??_C@_1CC@FKPGGIHO@?$AAs?$AAp?$AAa?$AAn?$AAi?$AAs?$AAh?$AA?9?$AAp?$AAa?$AAr?$AAa?$AAg?$AAu?$AAa?$AAy?$AA?$AA@ 1002939c     libucrt:get_qualified_locale.obj
 0002:000063c0       ??_C@_1BK@CDEIHOOP@?$AAs?$AAp?$AAa?$AAn?$AAi?$AAs?$AAh?$AA?9?$AAp?$AAe?$AAr?$AAu?$AA?$AA@ 100293c0     libucrt:get_qualified_locale.obj
 0002:000063dc       ??_C@_1CI@GAHAKKGP@?$AAs?$AAp?$AAa?$AAn?$AAi?$AAs?$AAh?$AA?9?$AAp?$AAu?$AAe?$AAr?$AAt?$AAo?$AA?5?$AAr?$AAi?$AAc?$AAo?$AA?$AA@ 100293dc     libucrt:get_qualified_locale.obj
 0002:00006404       ??_C@_1CA@NKJBCAGP@?$AAs?$AAp?$AAa?$AAn?$AAi?$AAs?$AAh?$AA?9?$AAu?$AAr?$AAu?$AAg?$AAu?$AAa?$AAy?$AA?$AA@ 10029404     libucrt:get_qualified_locale.obj
 0002:00006424       ??_C@_1CE@ODILCONM@?$AAs?$AAp?$AAa?$AAn?$AAi?$AAs?$AAh?$AA?9?$AAv?$AAe?$AAn?$AAe?$AAz?$AAu?$AAe?$AAl?$AAa?$AA?$AA@ 10029424     libucrt:get_qualified_locale.obj
 0002:00006448       ??_C@_1CA@OBNMCGFO@?$AAs?$AAw?$AAe?$AAd?$AAi?$AAs?$AAh?$AA?9?$AAf?$AAi?$AAn?$AAl?$AAa?$AAn?$AAd?$AA?$AA@ 10029448     libucrt:get_qualified_locale.obj
 0002:00006468       ??_C@_1M@PIPDDPPI@?$AAs?$AAw?$AAi?$AAs?$AAs?$AA?$AA@ 10029468     libucrt:get_qualified_locale.obj
 0002:00006474       ??_C@_15PJPFLCCM@?$AAu?$AAk?$AA?$AA@ 10029474     libucrt:get_qualified_locale.obj
 0002:0000647c       ??_C@_15GMFIMNFM@?$AAu?$AAs?$AA?$AA@ 1002947c     libucrt:get_qualified_locale.obj
 0002:00006484       ??_C@_17HAEBFAGL@?$AAu?$AAs?$AAa?$AA?$AA@ 10029484     libucrt:get_qualified_locale.obj
 0002:0000648c       ??_C@_1BA@DPFJEPHB@?$AAa?$AAm?$AAe?$AAr?$AAi?$AAc?$AAa?$AA?$AA@ 1002948c     libucrt:get_qualified_locale.obj
 0002:0000649c       ??_C@_1BA@ELOGGFK@?$AAb?$AAr?$AAi?$AAt?$AAa?$AAi?$AAn?$AA?$AA@ 1002949c     libucrt:get_qualified_locale.obj
 0002:000064ac       ??_C@_1M@GHBGIGDA@?$AAc?$AAh?$AAi?$AAn?$AAa?$AA?$AA@ 100294ac     libucrt:get_qualified_locale.obj
 0002:000064b8       ??_C@_1M@NCHEJOPO@?$AAc?$AAz?$AAe?$AAc?$AAh?$AA?$AA@ 100294b8     libucrt:get_qualified_locale.obj
 0002:000064c4       ??_C@_1BA@BKPAPBLA@?$AAe?$AAn?$AAg?$AAl?$AAa?$AAn?$AAd?$AA?$AA@ 100294c4     libucrt:get_qualified_locale.obj
 0002:000064d4       ??_C@_1BM@HKBCKIPC@?$AAg?$AAr?$AAe?$AAa?$AAt?$AA?5?$AAb?$AAr?$AAi?$AAt?$AAa?$AAi?$AAn?$AA?$AA@ 100294d4     libucrt:get_qualified_locale.obj
 0002:000064f0       ??_C@_1BA@PPCHPGJB@?$AAh?$AAo?$AAl?$AAl?$AAa?$AAn?$AAd?$AA?$AA@ 100294f0     libucrt:get_qualified_locale.obj
 0002:00006500       ??_C@_1BE@JBMPEGDG@?$AAh?$AAo?$AAn?$AAg?$AA?9?$AAk?$AAo?$AAn?$AAg?$AA?$AA@ 10029500     libucrt:get_qualified_locale.obj
 0002:00006514       ??_C@_1BI@KOELBBPJ@?$AAn?$AAe?$AAw?$AA?9?$AAz?$AAe?$AAa?$AAl?$AAa?$AAn?$AAd?$AA?$AA@ 10029514     libucrt:get_qualified_locale.obj
 0002:0000652c       ??_C@_15HIEBHAIO@?$AAn?$AAz?$AA?$AA@ 1002952c     libucrt:get_qualified_locale.obj
 0002:00006534       ??_C@_1BC@CHBCPFPI@?$AAp?$AAr?$AA?5?$AAc?$AAh?$AAi?$AAn?$AAa?$AA?$AA@ 10029534     libucrt:get_qualified_locale.obj
 0002:00006548       ??_C@_1BC@JAOIIFKD@?$AAp?$AAr?$AA?9?$AAc?$AAh?$AAi?$AAn?$AAa?$AA?$AA@ 10029548     libucrt:get_qualified_locale.obj
 0002:0000655c       ??_C@_1BI@BEHPPHKC@?$AAp?$AAu?$AAe?$AAr?$AAt?$AAo?$AA?9?$AAr?$AAi?$AAc?$AAo?$AA?$AA@ 1002955c     libucrt:get_qualified_locale.obj
 0002:00006574       ??_C@_1O@PAEOFKDI@?$AAs?$AAl?$AAo?$AAv?$AAa?$AAk?$AA?$AA@ 10029574     libucrt:get_qualified_locale.obj
 0002:00006584       ??_C@_1BK@FIHMCKAM@?$AAs?$AAo?$AAu?$AAt?$AAh?$AA?5?$AAa?$AAf?$AAr?$AAi?$AAc?$AAa?$AA?$AA@ 10029584     libucrt:get_qualified_locale.obj
 0002:000065a0       ??_C@_1BI@NAEOODKB@?$AAs?$AAo?$AAu?$AAt?$AAh?$AA?5?$AAk?$AAo?$AAr?$AAe?$AAa?$AA?$AA@ 100295a0     libucrt:get_qualified_locale.obj
 0002:000065b8       ??_C@_1BK@FBDGGIFF@?$AAs?$AAo?$AAu?$AAt?$AAh?$AA?9?$AAa?$AAf?$AAr?$AAi?$AAc?$AAa?$AA?$AA@ 100295b8     libucrt:get_qualified_locale.obj
 0002:000065d4       ??_C@_1BI@GHLEJDPK@?$AAs?$AAo?$AAu?$AAt?$AAh?$AA?9?$AAk?$AAo?$AAr?$AAe?$AAa?$AA?$AA@ 100295d4     libucrt:get_qualified_locale.obj
 0002:000065ec       ??_C@_1CE@PLHLOMJF@?$AAt?$AAr?$AAi?$AAn?$AAi?$AAd?$AAa?$AAd?$AA?5?$AA?$CG?$AA?5?$AAt?$AAo?$AAb?$AAa?$AAg?$AAo?$AA?$AA@ 100295ec     libucrt:get_qualified_locale.obj
 0002:00006610       ??_C@_1BO@MODIMHHI@?$AAu?$AAn?$AAi?$AAt?$AAe?$AAd?$AA?9?$AAk?$AAi?$AAn?$AAg?$AAd?$AAo?$AAm?$AA?$AA@ 10029610     libucrt:get_qualified_locale.obj
 0002:00006630       ??_C@_1BM@FFHJONBJ@?$AAu?$AAn?$AAi?$AAt?$AAe?$AAd?$AA?9?$AAs?$AAt?$AAa?$AAt?$AAe?$AAs?$AA?$AA@ 10029630     libucrt:get_qualified_locale.obj
 0002:0000664c       ??_C@_17DNCLJFIF@?$AAA?$AAC?$AAP?$AA?$AA@ 1002964c     libucrt:get_qualified_locale.obj
 0002:00006654       ??_C@_17CIKBIHLH@?$AAO?$AAC?$AAP?$AA?$AA@ 10029654     libucrt:get_qualified_locale.obj
 0002:0000665c       ___rglangidNotDefault      1002965c     libucrt:getqloc_downlevel.obj
 0002:00006d90       ??_C@_15EMKDOKLE@?$AAa?$AAr?$AA?$AA@ 10029d90     libucrt:lcidtoname_downlevel.obj
 0002:00006d98       ??_C@_15KNPADPLH@?$AAb?$AAg?$AA?$AA@ 10029d98     libucrt:lcidtoname_downlevel.obj
 0002:00006da0       ??_C@_15EDMHLDMO@?$AAc?$AAa?$AA?$AA@ 10029da0     libucrt:lcidtoname_downlevel.obj
 0002:00006da8       ??_C@_1O@BPEAJADD@?$AAz?$AAh?$AA?9?$AAC?$AAH?$AAS?$AA?$AA@ 10029da8     libucrt:lcidtoname_downlevel.obj
 0002:00006db8       ??_C@_15LJNHCMNK@?$AAc?$AAs?$AA?$AA@ 10029db8     libucrt:lcidtoname_downlevel.obj
 0002:00006dc0       ??_C@_15FOMCIDHG@?$AAd?$AAa?$AA?$AA@ 10029dc0     libucrt:lcidtoname_downlevel.obj
 0002:00006dc8       ??_C@_15NBKABECB@?$AAd?$AAe?$AA?$AA@ 10029dc8     libucrt:lcidtoname_downlevel.obj
 0002:00006dd0       ??_C@_15GHPEIIAO@?$AAe?$AAl?$AA?$AA@ 10029dd0     libucrt:lcidtoname_downlevel.obj
 0002:00006dd8       ??_C@_15MNPNEAIF@?$AAe?$AAn?$AA?$AA@ 10029dd8     libucrt:lcidtoname_downlevel.obj
 0002:00006de0       ??_C@_15GPIOMPMH@?$AAe?$AAs?$AA?$AA@ 10029de0     libucrt:lcidtoname_downlevel.obj
 0002:00006de8       ??_C@_15NGLOAKJC@?$AAf?$AAi?$AA?$AA@ 10029de8     libucrt:lcidtoname_downlevel.obj
 0002:00006df0       ??_C@_15FBKGNKAM@?$AAf?$AAr?$AA?$AA@ 10029df0     libucrt:lcidtoname_downlevel.obj
 0002:00006df8       ??_C@_15KGGCNEFK@?$AAh?$AAe?$AA?$AA@ 10029df8     libucrt:lcidtoname_downlevel.obj
 0002:00006e00       ??_C@_15PGHLIDMF@?$AAh?$AAu?$AA?$AA@ 10029e00     libucrt:lcidtoname_downlevel.obj
 0002:00006e08       ??_C@_15BIEMAPLM@?$AAi?$AAs?$AA?$AA@ 10029e08     libucrt:lcidtoname_downlevel.obj
 0002:00006e10       ??_C@_15IFJLDHAF@?$AAi?$AAt?$AA?$AA@ 10029e10     libucrt:lcidtoname_downlevel.obj
 0002:00006e18       ??_C@_15GEMIOCAG@?$AAj?$AAa?$AA?$AA@ 10029e18     libucrt:lcidtoname_downlevel.obj
 0002:00006e20       ??_C@_15EPELEGJA@?$AAk?$AAo?$AA?$AA@ 10029e20     libucrt:lcidtoname_downlevel.obj
 0002:00006e28       ??_C@_15NDDHIMN@?$AAn?$AAl?$AA?$AA@ 10029e28     libucrt:lcidtoname_downlevel.obj
 0002:00006e30       ??_C@_15BPIGNHCD@?$AAn?$AAo?$AA?$AA@ 10029e30     libucrt:lcidtoname_downlevel.obj
 0002:00006e38       ??_C@_15DEOPBLCG@?$AAp?$AAl?$AA?$AA@ 10029e38     libucrt:lcidtoname_downlevel.obj
 0002:00006e40       ??_C@_15KBECGEFG@?$AAp?$AAt?$AA?$AA@ 10029e40     libucrt:lcidtoname_downlevel.obj
 0002:00006e48       ??_C@_15GLJCBFMD@?$AAr?$AAo?$AA?$AA@ 10029e48     libucrt:lcidtoname_downlevel.obj
 0002:00006e50       ??_C@_15FEDGKCDI@?$AAr?$AAu?$AA?$AA@ 10029e50     libucrt:lcidtoname_downlevel.obj
 0002:00006e58       ??_C@_15GLKMLLHM@?$AAh?$AAr?$AA?$AA@ 10029e58     libucrt:lcidtoname_downlevel.obj
 0002:00006e60       ??_C@_15CPKMFBDB@?$AAs?$AAk?$AA?$AA@ 10029e60     libucrt:lcidtoname_downlevel.obj
 0002:00006e68       ??_C@_15BAAIOGMK@?$AAs?$AAq?$AA?$AA@ 10029e68     libucrt:lcidtoname_downlevel.obj
 0002:00006e70       ??_C@_15INNPNOHD@?$AAs?$AAv?$AA?$AA@ 10029e70     libucrt:lcidtoname_downlevel.obj
 0002:00006e78       ??_C@_15CABMMOGH@?$AAt?$AAh?$AA?$AA@ 10029e78     libucrt:lcidtoname_downlevel.obj
 0002:00006e80       ??_C@_15BPLIHJJM@?$AAt?$AAr?$AA?$AA@ 10029e80     libucrt:lcidtoname_downlevel.obj
 0002:00006e88       ??_C@_15NEOEKKDJ@?$AAu?$AAr?$AA?$AA@ 10029e88     libucrt:lcidtoname_downlevel.obj
 0002:00006e90       ??_C@_15NFICGAJK@?$AAi?$AAd?$AA?$AA@ 10029e90     libucrt:lcidtoname_downlevel.obj
 0002:00006e98       ??_C@_15HPJPHDM@?$AAb?$AAe?$AA?$AA@ 10029e98     libucrt:lcidtoname_downlevel.obj
 0002:00006ea0       ??_C@_15LCHLGJII@?$AAs?$AAl?$AA?$AA@ 10029ea0     libucrt:lcidtoname_downlevel.obj
 0002:00006ea8       ??_C@_15PCFJPHHO@?$AAe?$AAt?$AA?$AA@ 10029ea8     libucrt:lcidtoname_downlevel.obj
 0002:00006eb0       ??_C@_15HPFPGODN@?$AAl?$AAv?$AA?$AA@ 10029eb0     libucrt:lcidtoname_downlevel.obj
 0002:00006eb8       ??_C@_15NFFGKGLG@?$AAl?$AAt?$AA?$AA@ 10029eb8     libucrt:lcidtoname_downlevel.obj
 0002:00006ec0       ??_C@_15BDAKCCHN@?$AAf?$AAa?$AA?$AA@ 10029ec0     libucrt:lcidtoname_downlevel.obj
 0002:00006ec8       ??_C@_15NFGIAIAJ@?$AAv?$AAi?$AA?$AA@ 10029ec8     libucrt:lcidtoname_downlevel.obj
 0002:00006ed0       ??_C@_15LMKNDMHN@?$AAh?$AAy?$AA?$AA@ 10029ed0     libucrt:lcidtoname_downlevel.obj
 0002:00006ed8       ??_C@_15IJBHMCFL@?$AAa?$AAz?$AA?$AA@ 10029ed8     libucrt:lcidtoname_downlevel.obj
 0002:00006ee0       ??_C@_15EKOFJABL@?$AAe?$AAu?$AA?$AA@ 10029ee0     libucrt:lcidtoname_downlevel.obj
 0002:00006ee8       ??_C@_15BGHADCNK@?$AAm?$AAk?$AA?$AA@ 10029ee8     libucrt:lcidtoname_downlevel.obj
 0002:00006ef0       ??_C@_15JDNICKHM@?$AAa?$AAf?$AA?$AA@ 10029ef0     libucrt:lcidtoname_downlevel.obj
 0002:00006ef8       ??_C@_15KPJEDBKD@?$AAk?$AAa?$AA?$AA@ 10029ef8     libucrt:lcidtoname_downlevel.obj
 0002:00006f00       ??_C@_15PDNFFFEO@?$AAf?$AAo?$AA?$AA@ 10029f00     libucrt:lcidtoname_downlevel.obj
 0002:00006f08       ??_C@_15OMLEGLOC@?$AAh?$AAi?$AA?$AA@ 10029f08     libucrt:lcidtoname_downlevel.obj
 0002:00006f10       ??_C@_15IDNNENKK@?$AAm?$AAs?$AA?$AA@ 10029f10     libucrt:lcidtoname_downlevel.obj
 0002:00006f18       ??_C@_15MACJNBMH@?$AAk?$AAk?$AA?$AA@ 10029f18     libucrt:lcidtoname_downlevel.obj
 0002:00006f20       ??_C@_15DKDJEOND@?$AAk?$AAy?$AA?$AA@ 10029f20     libucrt:lcidtoname_downlevel.obj
 0002:00006f28       ??_C@_15DFGDLJBG@?$AAs?$AAw?$AA?$AA@ 10029f28     libucrt:lcidtoname_downlevel.obj
 0002:00006f30       ??_C@_15BBFAICNG@?$AAu?$AAz?$AA?$AA@ 10029f30     libucrt:lcidtoname_downlevel.obj
 0002:00006f38       ??_C@_15DKNDCGEA@?$AAt?$AAt?$AA?$AA@ 10029f38     libucrt:lcidtoname_downlevel.obj
 0002:00006f40       ??_C@_15MGIFMDPL@?$AAp?$AAa?$AA?$AA@ 10029f40     libucrt:lcidtoname_downlevel.obj
 0002:00006f48       ??_C@_15HCNDBBA@?$AAg?$AAu?$AA?$AA@ 10029f48     libucrt:lcidtoname_downlevel.obj
 0002:00006f50       ??_C@_15FNBEIBON@?$AAt?$AAa?$AA?$AA@ 10029f50     libucrt:lcidtoname_downlevel.obj
 0002:00006f58       ??_C@_15NCHGBGLK@?$AAt?$AAe?$AA?$AA@ 10029f58     libucrt:lcidtoname_downlevel.obj
 0002:00006f60       ??_C@_15PHPHCBPF@?$AAk?$AAn?$AA?$AA@ 10029f60     libucrt:lcidtoname_downlevel.obj
 0002:00006f68       ??_C@_15DLGBCKMP@?$AAm?$AAr?$AA?$AA@ 10029f68     libucrt:lcidtoname_downlevel.obj
 0002:00006f70       ??_C@_15EABBLBFF@?$AAs?$AAa?$AA?$AA@ 10029f70     libucrt:lcidtoname_downlevel.obj
 0002:00006f78       ??_C@_15CBKOMCOI@?$AAm?$AAn?$AA?$AA@ 10029f78     libucrt:lcidtoname_downlevel.obj
 0002:00006f80       ??_C@_15CKDMCJAF@?$AAg?$AAl?$AA?$AA@ 10029f80     libucrt:lcidtoname_downlevel.obj
 0002:00006f88       ??_C@_17CNJFBPG@?$AAk?$AAo?$AAk?$AA?$AA@ 10029f88     libucrt:lcidtoname_downlevel.obj
 0002:00006f90       ??_C@_17FFBJICPL@?$AAs?$AAy?$AAr?$AA?$AA@ 10029f90     libucrt:lcidtoname_downlevel.obj
 0002:00006f98       ??_C@_17KPNDCPAF@?$AAd?$AAi?$AAv?$AA?$AA@ 10029f98     libucrt:lcidtoname_downlevel.obj
 0002:00006fa0       ??_C@_11LOCGONAA@?$AA?$AA@ 10029fa0     libucrt:lcidtoname_downlevel.obj
 0002:00006fa4       ??_C@_1M@OKAHONE@?$AAa?$AAr?$AA?9?$AAS?$AAA?$AA?$AA@ 10029fa4     libucrt:lcidtoname_downlevel.obj
 0002:00006fb0       ??_C@_1M@FFFIGIGK@?$AAb?$AAg?$AA?9?$AAB?$AAG?$AA?$AA@ 10029fb0     libucrt:lcidtoname_downlevel.obj
 0002:00006fbc       ??_C@_1M@BJNKEDC@?$AAc?$AAa?$AA?9?$AAE?$AAS?$AA?$AA@ 10029fbc     libucrt:lcidtoname_downlevel.obj
 0002:00006fc8       ??_C@_1M@IJJHFJHA@?$AAc?$AAs?$AA?9?$AAC?$AAZ?$AA?$AA@ 10029fc8     libucrt:lcidtoname_downlevel.obj
 0002:00006fd4       ??_C@_1M@CLPEOBGI@?$AAd?$AAa?$AA?9?$AAD?$AAK?$AA?$AA@ 10029fd4     libucrt:lcidtoname_downlevel.obj
 0002:00006fe0       ??_C@_1M@MCMADGCB@?$AAd?$AAe?$AA?9?$AAD?$AAE?$AA?$AA@ 10029fe0     libucrt:lcidtoname_downlevel.obj
 0002:00006fec       ??_C@_1M@OOCKEMAM@?$AAe?$AAl?$AA?9?$AAG?$AAR?$AA?$AA@ 10029fec     libucrt:lcidtoname_downlevel.obj
 0002:00006ff8       ??_C@_1M@DDNJFGID@?$AAf?$AAi?$AA?9?$AAF?$AAI?$AA?$AA@ 10029ff8     libucrt:lcidtoname_downlevel.obj
 0002:00007004       ??_C@_1M@GLIPPMAC@?$AAf?$AAr?$AA?9?$AAF?$AAR?$AA?$AA@ 1002a004     libucrt:lcidtoname_downlevel.obj
 0002:00007010       ??_C@_1M@GFMCHPE@?$AAh?$AAe?$AA?9?$AAI?$AAL?$AA?$AA@ 1002a010     libucrt:lcidtoname_downlevel.obj
 0002:0000701c       ??_C@_1M@MHLPGNKM@?$AAh?$AAu?$AA?9?$AAH?$AAU?$AA?$AA@ 1002a01c     libucrt:lcidtoname_downlevel.obj
 0002:00007028       ??_C@_1M@LPDDNNPN@?$AAi?$AAs?$AA?9?$AAI?$AAS?$AA?$AA@ 1002a028     libucrt:lcidtoname_downlevel.obj
 0002:00007034       ??_C@_1M@MADIPODN@?$AAi?$AAt?$AA?9?$AAI?$AAT?$AA?$AA@ 1002a034     libucrt:lcidtoname_downlevel.obj
 0002:00007040       ??_C@_1M@IHBJJGG@?$AAn?$AAl?$AA?9?$AAN?$AAL?$AA?$AA@ 1002a040     libucrt:lcidtoname_downlevel.obj
 0002:0000704c       ??_C@_1M@EANAGDL@?$AAn?$AAb?$AA?9?$AAN?$AAO?$AA?$AA@ 1002a04c     libucrt:lcidtoname_downlevel.obj
 0002:00007058       ??_C@_1M@NEIEMEGP@?$AAp?$AAl?$AA?9?$AAP?$AAL?$AA?$AA@ 1002a058     libucrt:lcidtoname_downlevel.obj
 0002:00007064       ??_C@_1M@BOCFIGEP@?$AAp?$AAt?$AA?9?$AAB?$AAR?$AA?$AA@ 1002a064     libucrt:lcidtoname_downlevel.obj
 0002:00007070       ??_C@_1M@IMPFOPBG@?$AAr?$AAo?$AA?9?$AAR?$AAO?$AA?$AA@ 1002a070     libucrt:lcidtoname_downlevel.obj
 0002:0000707c       ??_C@_1M@IDNNEJMM@?$AAr?$AAu?$AA?9?$AAR?$AAU?$AA?$AA@ 1002a07c     libucrt:lcidtoname_downlevel.obj
 0002:00007088       ??_C@_1M@LILEEOGM@?$AAh?$AAr?$AA?9?$AAH?$AAR?$AA?$AA@ 1002a088     libucrt:lcidtoname_downlevel.obj
 0002:00007094       ??_C@_1M@FKIFEHPB@?$AAs?$AAk?$AA?9?$AAS?$AAK?$AA?$AA@ 1002a094     libucrt:lcidtoname_downlevel.obj
 0002:000070a0       ??_C@_1M@LJMAMNPJ@?$AAs?$AAq?$AA?9?$AAA?$AAL?$AA?$AA@ 1002a0a0     libucrt:lcidtoname_downlevel.obj
 0002:000070ac       ??_C@_1M@GIAKDKJK@?$AAs?$AAv?$AA?9?$AAS?$AAE?$AA?$AA@ 1002a0ac     libucrt:lcidtoname_downlevel.obj
 0002:000070b8       ??_C@_1M@MKJKIKCL@?$AAt?$AAh?$AA?9?$AAT?$AAH?$AA?$AA@ 1002a0b8     libucrt:lcidtoname_downlevel.obj
 0002:000070c4       ??_C@_1M@MFLCCMPB@?$AAt?$AAr?$AA?9?$AAT?$AAR?$AA?$AA@ 1002a0c4     libucrt:lcidtoname_downlevel.obj
 0002:000070d0       ??_C@_1M@OIJHDKJN@?$AAu?$AAr?$AA?9?$AAP?$AAK?$AA?$AA@ 1002a0d0     libucrt:lcidtoname_downlevel.obj
 0002:000070dc       ??_C@_1M@LHIPCIEK@?$AAi?$AAd?$AA?9?$AAI?$AAD?$AA?$AA@ 1002a0dc     libucrt:lcidtoname_downlevel.obj
 0002:000070e8       ??_C@_1M@MFMOBGI@?$AAu?$AAk?$AA?9?$AAU?$AAA?$AA?$AA@ 1002a0e8     libucrt:lcidtoname_downlevel.obj
 0002:000070f4       ??_C@_1M@OBGLJIPL@?$AAb?$AAe?$AA?9?$AAB?$AAY?$AA?$AA@ 1002a0f4     libucrt:lcidtoname_downlevel.obj
 0002:00007100       ??_C@_1M@BCFAJEAD@?$AAs?$AAl?$AA?9?$AAS?$AAI?$AA?$AA@ 1002a100     libucrt:lcidtoname_downlevel.obj
 0002:0000710c       ??_C@_1M@FKFFEDDN@?$AAe?$AAt?$AA?9?$AAE?$AAE?$AA?$AA@ 1002a10c     libucrt:lcidtoname_downlevel.obj
 0002:00007118       ??_C@_1M@KGKKAACI@?$AAl?$AAv?$AA?9?$AAL?$AAV?$AA?$AA@ 1002a118     libucrt:lcidtoname_downlevel.obj
 0002:00007124       ??_C@_1M@IFGBIJO@?$AAl?$AAt?$AA?9?$AAL?$AAT?$AA?$AA@ 1002a124     libucrt:lcidtoname_downlevel.obj
 0002:00007130       ??_C@_1M@FGEAHEDM@?$AAf?$AAa?$AA?9?$AAI?$AAR?$AA?$AA@ 1002a130     libucrt:lcidtoname_downlevel.obj
 0002:0000713c       ??_C@_1M@KBMAIBFN@?$AAv?$AAi?$AA?9?$AAV?$AAN?$AA?$AA@ 1002a13c     libucrt:lcidtoname_downlevel.obj
 0002:00007148       ??_C@_1M@GPCBKDJK@?$AAh?$AAy?$AA?9?$AAA?$AAM?$AA?$AA@ 1002a148     libucrt:lcidtoname_downlevel.obj
 0002:00007154       ??_C@_1BG@BECMDDJB@?$AAa?$AAz?$AA?9?$AAA?$AAZ?$AA?9?$AAL?$AAa?$AAt?$AAn?$AA?$AA@ 1002a154     libucrt:lcidtoname_downlevel.obj
 0002:0000716c       ??_C@_1M@MAOFCAEA@?$AAe?$AAu?$AA?9?$AAE?$AAS?$AA?$AA@ 1002a16c     libucrt:lcidtoname_downlevel.obj
 0002:00007178       ??_C@_1M@IGHABKPI@?$AAm?$AAk?$AA?9?$AAM?$AAK?$AA?$AA@ 1002a178     libucrt:lcidtoname_downlevel.obj
 0002:00007184       ??_C@_1M@IAIGNEJG@?$AAt?$AAn?$AA?9?$AAZ?$AAA?$AA?$AA@ 1002a184     libucrt:lcidtoname_downlevel.obj
 0002:00007190       ??_C@_1M@IIJCOJFA@?$AAx?$AAh?$AA?9?$AAZ?$AAA?$AA?$AA@ 1002a190     libucrt:lcidtoname_downlevel.obj
 0002:0000719c       ??_C@_1M@LGPJHNJH@?$AAz?$AAu?$AA?9?$AAZ?$AAA?$AA?$AA@ 1002a19c     libucrt:lcidtoname_downlevel.obj
 0002:000071a8       ??_C@_1M@HOKAOIO@?$AAa?$AAf?$AA?9?$AAZ?$AAA?$AA?$AA@ 1002a1a8     libucrt:lcidtoname_downlevel.obj
 0002:000071b4       ??_C@_1M@DPCLHLIE@?$AAk?$AAa?$AA?9?$AAG?$AAE?$AA?$AA@ 1002a1b4     libucrt:lcidtoname_downlevel.obj
 0002:000071c0       ??_C@_1M@BLKMHJBI@?$AAf?$AAo?$AA?9?$AAF?$AAO?$AA?$AA@ 1002a1c0     libucrt:lcidtoname_downlevel.obj
 0002:000071cc       ??_C@_1M@LGGJAPPB@?$AAh?$AAi?$AA?9?$AAI?$AAN?$AA?$AA@ 1002a1cc     libucrt:lcidtoname_downlevel.obj
 0002:000071d8       ??_C@_1M@FIKPIHFE@?$AAm?$AAt?$AA?9?$AAM?$AAT?$AA?$AA@ 1002a1d8     libucrt:lcidtoname_downlevel.obj
 0002:000071e4       ??_C@_1M@HEGGPBFA@?$AAs?$AAe?$AA?9?$AAN?$AAO?$AA?$AA@ 1002a1e4     libucrt:lcidtoname_downlevel.obj
 0002:000071f0       ??_C@_1M@EIBJEEPA@?$AAm?$AAs?$AA?9?$AAM?$AAY?$AA?$AA@ 1002a1f0     libucrt:lcidtoname_downlevel.obj
 0002:000071fc       ??_C@_1M@FHLBGMPP@?$AAk?$AAk?$AA?9?$AAK?$AAZ?$AA?$AA@ 1002a1fc     libucrt:lcidtoname_downlevel.obj
 0002:00007208       ??_C@_1M@NGJJLCGI@?$AAk?$AAy?$AA?9?$AAK?$AAG?$AA?$AA@ 1002a208     libucrt:lcidtoname_downlevel.obj
 0002:00007214       ??_C@_1M@GIENNBFC@?$AAs?$AAw?$AA?9?$AAK?$AAE?$AA?$AA@ 1002a214     libucrt:lcidtoname_downlevel.obj
 0002:00007220       ??_C@_1BG@NDGMJIMJ@?$AAu?$AAz?$AA?9?$AAU?$AAZ?$AA?9?$AAL?$AAa?$AAt?$AAn?$AA?$AA@ 1002a220     libucrt:lcidtoname_downlevel.obj
 0002:00007238       ??_C@_1M@IDCCIHBC@?$AAt?$AAt?$AA?9?$AAR?$AAU?$AA?$AA@ 1002a238     libucrt:lcidtoname_downlevel.obj
 0002:00007244       ??_C@_1M@LOICPMOJ@?$AAb?$AAn?$AA?9?$AAI?$AAN?$AA?$AA@ 1002a244     libucrt:lcidtoname_downlevel.obj
 0002:00007250       ??_C@_1M@KPKKNEAH@?$AAp?$AAa?$AA?9?$AAI?$AAN?$AA?$AA@ 1002a250     libucrt:lcidtoname_downlevel.obj
 0002:0000725c       ??_C@_1M@PJGPPBOG@?$AAg?$AAu?$AA?9?$AAI?$AAN?$AA?$AA@ 1002a25c     libucrt:lcidtoname_downlevel.obj
 0002:00007268       ??_C@_1M@KMKMOPHI@?$AAt?$AAa?$AA?9?$AAI?$AAN?$AA?$AA@ 1002a268     libucrt:lcidtoname_downlevel.obj
 0002:00007274       ??_C@_1M@KFEHEPAC@?$AAt?$AAe?$AA?9?$AAI?$AAN?$AA?$AA@ 1002a274     libucrt:lcidtoname_downlevel.obj
 0002:00007280       ??_C@_1M@CDCLMGHI@?$AAk?$AAn?$AA?9?$AAI?$AAN?$AA?$AA@ 1002a280     libucrt:lcidtoname_downlevel.obj
 0002:0000728c       ??_C@_1M@MIODLDKF@?$AAm?$AAl?$AA?9?$AAI?$AAN?$AA?$AA@ 1002a28c     libucrt:lcidtoname_downlevel.obj
 0002:00007298       ??_C@_1M@PBIEACPO@?$AAm?$AAr?$AA?9?$AAI?$AAN?$AA?$AA@ 1002a298     libucrt:lcidtoname_downlevel.obj
 0002:000072a4       ??_C@_1M@NIDEAGPH@?$AAs?$AAa?$AA?9?$AAI?$AAN?$AA?$AA@ 1002a2a4     libucrt:lcidtoname_downlevel.obj
 0002:000072b0       ??_C@_1M@FHIHCBIO@?$AAm?$AAn?$AA?9?$AAM?$AAN?$AA?$AA@ 1002a2b0     libucrt:lcidtoname_downlevel.obj
 0002:000072bc       ??_C@_1M@JAIJPENP@?$AAc?$AAy?$AA?9?$AAG?$AAB?$AA?$AA@ 1002a2bc     libucrt:lcidtoname_downlevel.obj
 0002:000072c8       ??_C@_1M@PHGFBEPN@?$AAg?$AAl?$AA?9?$AAE?$AAS?$AA?$AA@ 1002a2c8     libucrt:lcidtoname_downlevel.obj
 0002:000072d4       ??_C@_1O@KPIPDNCP@?$AAk?$AAo?$AAk?$AA?9?$AAI?$AAN?$AA?$AA@ 1002a2d4     libucrt:lcidtoname_downlevel.obj
 0002:000072e4       ??_C@_1O@KNHJLDJA@?$AAs?$AAy?$AAr?$AA?9?$AAS?$AAY?$AA?$AA@ 1002a2e4     libucrt:lcidtoname_downlevel.obj
 0002:000072f4       ??_C@_1O@MKEKBLAH@?$AAd?$AAi?$AAv?$AA?9?$AAM?$AAV?$AA?$AA@ 1002a2f4     libucrt:lcidtoname_downlevel.obj
 0002:00007304       ??_C@_1O@OHDCKDDF@?$AAq?$AAu?$AAz?$AA?9?$AAB?$AAO?$AA?$AA@ 1002a304     libucrt:lcidtoname_downlevel.obj
 0002:00007314       ??_C@_1M@LEPJNLFD@?$AAn?$AAs?$AA?9?$AAZ?$AAA?$AA?$AA@ 1002a314     libucrt:lcidtoname_downlevel.obj
 0002:00007320       ??_C@_1M@OMLEIIJB@?$AAm?$AAi?$AA?9?$AAN?$AAZ?$AA?$AA@ 1002a320     libucrt:lcidtoname_downlevel.obj
 0002:0000732c       ??_C@_1M@PMPEAILG@?$AAa?$AAr?$AA?9?$AAI?$AAQ?$AA?$AA@ 1002a32c     libucrt:lcidtoname_downlevel.obj
 0002:00007338       ??_C@_1M@CNKPNOEE@?$AAd?$AAe?$AA?9?$AAC?$AAH?$AA?$AA@ 1002a338     libucrt:lcidtoname_downlevel.obj
 0002:00007344       ??_C@_1M@LKMGMLKO@?$AAe?$AAn?$AA?9?$AAG?$AAB?$AA?$AA@ 1002a344     libucrt:lcidtoname_downlevel.obj
 0002:00007350       ??_C@_1M@PGKJFFGL@?$AAe?$AAs?$AA?9?$AAM?$AAX?$AA?$AA@ 1002a350     libucrt:lcidtoname_downlevel.obj
 0002:0000735c       ??_C@_1M@DNNANBDC@?$AAf?$AAr?$AA?9?$AAB?$AAE?$AA?$AA@ 1002a35c     libucrt:lcidtoname_downlevel.obj
 0002:00007368       ??_C@_1M@HLGMDFHM@?$AAi?$AAt?$AA?9?$AAC?$AAH?$AA?$AA@ 1002a368     libucrt:lcidtoname_downlevel.obj
 0002:00007374       ??_C@_1M@CLLBGJH@?$AAn?$AAl?$AA?9?$AAB?$AAE?$AA?$AA@ 1002a374     libucrt:lcidtoname_downlevel.obj
 0002:00007380       ??_C@_1M@BODBOGLF@?$AAn?$AAn?$AA?9?$AAN?$AAO?$AA?$AA@ 1002a380     libucrt:lcidtoname_downlevel.obj
 0002:0000738c       ??_C@_1M@HFFAHKAD@?$AAp?$AAt?$AA?9?$AAP?$AAT?$AA?$AA@ 1002a38c     libucrt:lcidtoname_downlevel.obj
 0002:00007398       ??_C@_1BG@LNOAKHIE@?$AAs?$AAr?$AA?9?$AAS?$AAP?$AA?9?$AAL?$AAa?$AAt?$AAn?$AA?$AA@ 1002a398     libucrt:lcidtoname_downlevel.obj
 0002:000073b0       ??_C@_1M@HBMHBGAK@?$AAs?$AAv?$AA?9?$AAF?$AAI?$AA?$AA@ 1002a3b0     libucrt:lcidtoname_downlevel.obj
 0002:000073bc       ??_C@_1BG@DGCJGJBE@?$AAa?$AAz?$AA?9?$AAA?$AAZ?$AA?9?$AAC?$AAy?$AAr?$AAl?$AA?$AA@ 1002a3bc     libucrt:lcidtoname_downlevel.obj
 0002:000073d4       ??_C@_1M@KEJDAAHB@?$AAs?$AAe?$AA?9?$AAS?$AAE?$AA?$AA@ 1002a3d4     libucrt:lcidtoname_downlevel.obj
 0002:000073e0       ??_C@_1M@HEIBJJAD@?$AAm?$AAs?$AA?9?$AAB?$AAN?$AA?$AA@ 1002a3e0     libucrt:lcidtoname_downlevel.obj
 0002:000073ec       ??_C@_1BG@PBGJMCEM@?$AAu?$AAz?$AA?9?$AAU?$AAZ?$AA?9?$AAC?$AAy?$AAr?$AAl?$AA?$AA@ 1002a3ec     libucrt:lcidtoname_downlevel.obj
 0002:00007404       ??_C@_1O@LAOBCMDF@?$AAq?$AAu?$AAz?$AA?9?$AAE?$AAC?$AA?$AA@ 1002a404     libucrt:lcidtoname_downlevel.obj
 0002:00007414       ??_C@_1M@POEEMAIO@?$AAa?$AAr?$AA?9?$AAE?$AAG?$AA?$AA@ 1002a414     libucrt:lcidtoname_downlevel.obj
 0002:00007420       ??_C@_1M@EFAKDEDL@?$AAz?$AAh?$AA?9?$AAH?$AAK?$AA?$AA@ 1002a420     libucrt:lcidtoname_downlevel.obj
 0002:0000742c       ??_C@_1M@HKKIJHGI@?$AAd?$AAe?$AA?9?$AAA?$AAT?$AA?$AA@ 1002a42c     libucrt:lcidtoname_downlevel.obj
 0002:00007438       ??_C@_1M@KBFBEHJF@?$AAe?$AAn?$AA?9?$AAA?$AAU?$AA?$AA@ 1002a438     libucrt:lcidtoname_downlevel.obj
 0002:00007444       ??_C@_1M@MNPLFAAH@?$AAe?$AAs?$AA?9?$AAE?$AAS?$AA?$AA@ 1002a444     libucrt:lcidtoname_downlevel.obj
 0002:00007450       ??_C@_1M@HJOOJFMA@?$AAf?$AAr?$AA?9?$AAC?$AAA?$AA?$AA@ 1002a450     libucrt:lcidtoname_downlevel.obj
 0002:0000745c       ??_C@_1BG@JPOFPNAB@?$AAs?$AAr?$AA?9?$AAS?$AAP?$AA?9?$AAC?$AAy?$AAr?$AAl?$AA?$AA@ 1002a45c     libucrt:lcidtoname_downlevel.obj
 0002:00007474       ??_C@_1M@LNFOCMOB@?$AAs?$AAe?$AA?9?$AAF?$AAI?$AA?$AA@ 1002a474     libucrt:lcidtoname_downlevel.obj
 0002:00007480       ??_C@_1O@MGJBOAMB@?$AAq?$AAu?$AAz?$AA?9?$AAP?$AAE?$AA?$AA@ 1002a480     libucrt:lcidtoname_downlevel.obj
 0002:00007490       ??_C@_1M@GJINLBOK@?$AAa?$AAr?$AA?9?$AAL?$AAY?$AA?$AA@ 1002a490     libucrt:lcidtoname_downlevel.obj
 0002:0000749c       ??_C@_1M@GGMNHJNL@?$AAz?$AAh?$AA?9?$AAS?$AAG?$AA?$AA@ 1002a49c     libucrt:lcidtoname_downlevel.obj
 0002:000074a8       ??_C@_1M@HOIKODND@?$AAd?$AAe?$AA?9?$AAL?$AAU?$AA?$AA@ 1002a4a8     libucrt:lcidtoname_downlevel.obj
 0002:000074b4       ??_C@_1M@DDOCCGFG@?$AAe?$AAn?$AA?9?$AAC?$AAA?$AA?$AA@ 1002a4b4     libucrt:lcidtoname_downlevel.obj
 0002:000074c0       ??_C@_1M@BNOEMJLF@?$AAe?$AAs?$AA?9?$AAG?$AAT?$AA?$AA@ 1002a4c0     libucrt:lcidtoname_downlevel.obj
 0002:000074cc       ??_C@_1M@EOGNKEK@?$AAf?$AAr?$AA?9?$AAC?$AAH?$AA?$AA@ 1002a4cc     libucrt:lcidtoname_downlevel.obj
 0002:000074d8       ??_C@_1M@FLIDJFHL@?$AAh?$AAr?$AA?9?$AAB?$AAA?$AA?$AA@ 1002a4d8     libucrt:lcidtoname_downlevel.obj
 0002:000074e4       ??_C@_1O@FMCELNAJ@?$AAs?$AAm?$AAj?$AA?9?$AAN?$AAO?$AA?$AA@ 1002a4e4     libucrt:lcidtoname_downlevel.obj
 0002:000074f4       ??_C@_1M@JHGLJMGJ@?$AAa?$AAr?$AA?9?$AAD?$AAZ?$AA?$AA@ 1002a4f4     libucrt:lcidtoname_downlevel.obj
 0002:00007500       ??_C@_1M@JKKFDCNP@?$AAz?$AAh?$AA?9?$AAM?$AAO?$AA?$AA@ 1002a500     libucrt:lcidtoname_downlevel.obj
 0002:0000750c       ??_C@_1M@GEEFALPE@?$AAd?$AAe?$AA?9?$AAL?$AAI?$AA?$AA@ 1002a50c     libucrt:lcidtoname_downlevel.obj
 0002:00007518       ??_C@_1M@IGEOFBG@?$AAe?$AAn?$AA?9?$AAN?$AAZ?$AA?$AA@ 1002a518     libucrt:lcidtoname_downlevel.obj
 0002:00007524       ??_C@_1M@KDBONEHP@?$AAe?$AAs?$AA?9?$AAC?$AAR?$AA?$AA@ 1002a524     libucrt:lcidtoname_downlevel.obj
 0002:00007530       ??_C@_1M@FHMDOHNN@?$AAf?$AAr?$AA?9?$AAL?$AAU?$AA?$AA@ 1002a530     libucrt:lcidtoname_downlevel.obj
 0002:0000753c       ??_C@_1BG@NFKKMAFG@?$AAb?$AAs?$AA?9?$AAB?$AAA?$AA?9?$AAL?$AAa?$AAt?$AAn?$AA?$AA@ 1002a53c     libucrt:lcidtoname_downlevel.obj
 0002:00007554       ??_C@_1O@IMNBEMCI@?$AAs?$AAm?$AAj?$AA?9?$AAS?$AAE?$AA?$AA@ 1002a554     libucrt:lcidtoname_downlevel.obj
 0002:00007564       ??_C@_1M@DHHMBNDP@?$AAa?$AAr?$AA?9?$AAM?$AAA?$AA?$AA@ 1002a564     libucrt:lcidtoname_downlevel.obj
 0002:00007570       ??_C@_1M@BNBLJCGH@?$AAe?$AAn?$AA?9?$AAI?$AAE?$AA?$AA@ 1002a570     libucrt:lcidtoname_downlevel.obj
 0002:0000757c       ??_C@_1M@GEPAFMDL@?$AAe?$AAs?$AA?9?$AAP?$AAA?$AA?$AA@ 1002a57c     libucrt:lcidtoname_downlevel.obj
 0002:00007588       ??_C@_1M@OJONDMDL@?$AAf?$AAr?$AA?9?$AAM?$AAC?$AA?$AA@ 1002a588     libucrt:lcidtoname_downlevel.obj
 0002:00007594       ??_C@_1BG@OBCNFJB@?$AAs?$AAr?$AA?9?$AAB?$AAA?$AA?9?$AAL?$AAa?$AAt?$AAn?$AA?$AA@ 1002a594     libucrt:lcidtoname_downlevel.obj
 0002:000075ac       ??_C@_1O@KEMEEGPO@?$AAs?$AAm?$AAa?$AA?9?$AAN?$AAO?$AA?$AA@ 1002a5ac     libucrt:lcidtoname_downlevel.obj
 0002:000075bc       ??_C@_1M@ELMGFODK@?$AAa?$AAr?$AA?9?$AAT?$AAN?$AA?$AA@ 1002a5bc     libucrt:lcidtoname_downlevel.obj
 0002:000075c8       ??_C@_1M@BHDLHFAF@?$AAe?$AAn?$AA?9?$AAZ?$AAA?$AA?$AA@ 1002a5c8     libucrt:lcidtoname_downlevel.obj
 0002:000075d4       ??_C@_1M@BMGIGLIF@?$AAe?$AAs?$AA?9?$AAD?$AAO?$AA?$AA@ 1002a5d4     libucrt:lcidtoname_downlevel.obj
 0002:000075e0       ??_C@_1BG@CMBHIPBE@?$AAs?$AAr?$AA?9?$AAB?$AAA?$AA?9?$AAC?$AAy?$AAr?$AAl?$AA?$AA@ 1002a5e0     libucrt:lcidtoname_downlevel.obj
 0002:000075f8       ??_C@_1O@HEDBLHNP@?$AAs?$AAm?$AAa?$AA?9?$AAS?$AAE?$AA?$AA@ 1002a5f8     libucrt:lcidtoname_downlevel.obj
 0002:00007608       ??_C@_1M@DAGCADIM@?$AAa?$AAr?$AA?9?$AAO?$AAM?$AA?$AA@ 1002a608     libucrt:lcidtoname_downlevel.obj
 0002:00007614       ??_C@_1M@FODLMICG@?$AAe?$AAn?$AA?9?$AAJ?$AAM?$AA?$AA@ 1002a614     libucrt:lcidtoname_downlevel.obj
 0002:00007620       ??_C@_1M@DNMLCIHB@?$AAe?$AAs?$AA?9?$AAV?$AAE?$AA?$AA@ 1002a620     libucrt:lcidtoname_downlevel.obj
 0002:0000762c       ??_C@_1O@EOKHMKJK@?$AAs?$AAm?$AAs?$AA?9?$AAF?$AAI?$AA?$AA@ 1002a62c     libucrt:lcidtoname_downlevel.obj
 0002:0000763c       ??_C@_1M@CAFJMKOF@?$AAa?$AAr?$AA?9?$AAY?$AAE?$AA?$AA@ 1002a63c     libucrt:lcidtoname_downlevel.obj
 0002:00007648       ??_C@_1M@CBFHIJLI@?$AAe?$AAn?$AA?9?$AAC?$AAB?$AA?$AA@ 1002a648     libucrt:lcidtoname_downlevel.obj
 0002:00007654       ??_C@_1M@BGNFLDN@?$AAe?$AAs?$AA?9?$AAC?$AAO?$AA?$AA@ 1002a654     libucrt:lcidtoname_downlevel.obj
 0002:00007660       ??_C@_1O@JMPHMAMC@?$AAs?$AAm?$AAn?$AA?9?$AAF?$AAI?$AA?$AA@ 1002a660     libucrt:lcidtoname_downlevel.obj
 0002:00007670       ??_C@_1M@JLANABKE@?$AAa?$AAr?$AA?9?$AAS?$AAY?$AA?$AA@ 1002a670     libucrt:lcidtoname_downlevel.obj
 0002:0000767c       ??_C@_1M@HPKGCFGN@?$AAe?$AAn?$AA?9?$AAB?$AAZ?$AA?$AA@ 1002a67c     libucrt:lcidtoname_downlevel.obj
 0002:00007688       ??_C@_1M@OLJCMLGM@?$AAe?$AAs?$AA?9?$AAP?$AAE?$AA?$AA@ 1002a688     libucrt:lcidtoname_downlevel.obj
 0002:00007694       ??_C@_1M@MKKGFKLE@?$AAa?$AAr?$AA?9?$AAJ?$AAO?$AA?$AA@ 1002a694     libucrt:lcidtoname_downlevel.obj
 0002:000076a0       ??_C@_1M@EKPGLDNI@?$AAe?$AAn?$AA?9?$AAT?$AAT?$AA?$AA@ 1002a6a0     libucrt:lcidtoname_downlevel.obj
 0002:000076ac       ??_C@_1M@OONGHFHE@?$AAe?$AAs?$AA?9?$AAA?$AAR?$AA?$AA@ 1002a6ac     libucrt:lcidtoname_downlevel.obj
 0002:000076b8       ??_C@_1M@OOJFGBHE@?$AAa?$AAr?$AA?9?$AAL?$AAB?$AA?$AA@ 1002a6b8     libucrt:lcidtoname_downlevel.obj
 0002:000076c4       ??_C@_1M@GCEJHNEG@?$AAe?$AAn?$AA?9?$AAZ?$AAW?$AA?$AA@ 1002a6c4     libucrt:lcidtoname_downlevel.obj
 0002:000076d0       ??_C@_1M@JNOCAHJI@?$AAe?$AAs?$AA?9?$AAE?$AAC?$AA?$AA@ 1002a6d0     libucrt:lcidtoname_downlevel.obj
 0002:000076dc       ??_C@_1M@JEFHPGGB@?$AAa?$AAr?$AA?9?$AAK?$AAW?$AA?$AA@ 1002a6dc     libucrt:lcidtoname_downlevel.obj
 0002:000076e8       ??_C@_1M@MLKIBJOJ@?$AAe?$AAn?$AA?9?$AAP?$AAH?$AA?$AA@ 1002a6e8     libucrt:lcidtoname_downlevel.obj
 0002:000076f4       ??_C@_1M@BDNIPEND@?$AAe?$AAs?$AA?9?$AAC?$AAL?$AA?$AA@ 1002a6f4     libucrt:lcidtoname_downlevel.obj
 0002:00007700       ??_C@_1M@MPNMEKBD@?$AAa?$AAr?$AA?9?$AAA?$AAE?$AA?$AA@ 1002a700     libucrt:lcidtoname_downlevel.obj
 0002:0000770c       ??_C@_1M@KBJALCPI@?$AAe?$AAs?$AA?9?$AAU?$AAY?$AA?$AA@ 1002a70c     libucrt:lcidtoname_downlevel.obj
 0002:00007718       ??_C@_1M@LLCCOAGA@?$AAa?$AAr?$AA?9?$AAB?$AAH?$AA?$AA@ 1002a718     libucrt:lcidtoname_downlevel.obj
 0002:00007724       ??_C@_1M@PBFNCDEL@?$AAe?$AAs?$AA?9?$AAP?$AAY?$AA?$AA@ 1002a724     libucrt:lcidtoname_downlevel.obj
 0002:00007730       ??_C@_1M@EDGINPNP@?$AAa?$AAr?$AA?9?$AAQ?$AAA?$AA?$AA@ 1002a730     libucrt:lcidtoname_downlevel.obj
 0002:0000773c       ??_C@_1M@MKDBIIJI@?$AAe?$AAs?$AA?9?$AAB?$AAO?$AA?$AA@ 1002a73c     libucrt:lcidtoname_downlevel.obj
 0002:00007748       ??_C@_1M@CPKKEBLD@?$AAe?$AAs?$AA?9?$AAS?$AAV?$AA?$AA@ 1002a748     libucrt:lcidtoname_downlevel.obj
 0002:00007754       ??_C@_1M@NDBGMMJL@?$AAe?$AAs?$AA?9?$AAH?$AAN?$AA?$AA@ 1002a754     libucrt:lcidtoname_downlevel.obj
 0002:00007760       ??_C@_1M@JIJIBHDP@?$AAe?$AAs?$AA?9?$AAN?$AAI?$AA?$AA@ 1002a760     libucrt:lcidtoname_downlevel.obj
 0002:0000776c       ??_C@_1M@CGFMKEEK@?$AAe?$AAs?$AA?9?$AAP?$AAR?$AA?$AA@ 1002a76c     libucrt:lcidtoname_downlevel.obj
 0002:00007778       ??_C@_1O@ICJHKIIK@?$AAz?$AAh?$AA?9?$AAC?$AAH?$AAT?$AA?$AA@ 1002a778     libucrt:lcidtoname_downlevel.obj
 0002:00007788       ??_C@_15CLNEJCE@?$AAs?$AAr?$AA?$AA@ 1002a788     libucrt:lcidtoname_downlevel.obj
 0002:00007eb0       ??_C@_1M@KAHEKEIG@?$AAa?$AAf?$AA?9?$AAz?$AAa?$AA?$AA@ 1002aeb0     libucrt:lcidtoname_downlevel.obj
 0002:00007ebc       ??_C@_1M@GIECOABL@?$AAa?$AAr?$AA?9?$AAa?$AAe?$AA?$AA@ 1002aebc     libucrt:lcidtoname_downlevel.obj
 0002:00007ec8       ??_C@_1M@BMLMEKGI@?$AAa?$AAr?$AA?9?$AAb?$AAh?$AA?$AA@ 1002aec8     libucrt:lcidtoname_downlevel.obj
 0002:00007ed4       ??_C@_1M@DAPFDGGB@?$AAa?$AAr?$AA?9?$AAd?$AAz?$AA?$AA@ 1002aed4     libucrt:lcidtoname_downlevel.obj
 0002:00007ee0       ??_C@_1M@FJNKGKIG@?$AAa?$AAr?$AA?9?$AAe?$AAg?$AA?$AA@ 1002aee0     libucrt:lcidtoname_downlevel.obj
 0002:00007eec       ??_C@_1M@FLGKKCLO@?$AAa?$AAr?$AA?9?$AAi?$AAq?$AA?$AA@ 1002aeec     libucrt:lcidtoname_downlevel.obj
 0002:00007ef8       ??_C@_1M@GNDIPALM@?$AAa?$AAr?$AA?9?$AAj?$AAo?$AA?$AA@ 1002aef8     libucrt:lcidtoname_downlevel.obj
 0002:00007f04       ??_C@_1M@DDMJFMGJ@?$AAa?$AAr?$AA?9?$AAk?$AAw?$AA?$AA@ 1002af04     libucrt:lcidtoname_downlevel.obj
 0002:00007f10       ??_C@_1M@EJALMLHM@?$AAa?$AAr?$AA?9?$AAl?$AAb?$AA?$AA@ 1002af10     libucrt:lcidtoname_downlevel.obj
 0002:00007f1c       ??_C@_1M@MOBDBLOC@?$AAa?$AAr?$AA?9?$AAl?$AAy?$AA?$AA@ 1002af1c     libucrt:lcidtoname_downlevel.obj
 0002:00007f28       ??_C@_1M@JAOCLHDH@?$AAa?$AAr?$AA?9?$AAm?$AAa?$AA?$AA@ 1002af28     libucrt:lcidtoname_downlevel.obj
 0002:00007f34       ??_C@_1M@JHPMKJIE@?$AAa?$AAr?$AA?9?$AAo?$AAm?$AA?$AA@ 1002af34     libucrt:lcidtoname_downlevel.obj
 0002:00007f40       ??_C@_1M@OEPGHFNH@?$AAa?$AAr?$AA?9?$AAq?$AAa?$AA?$AA@ 1002af40     libucrt:lcidtoname_downlevel.obj
 0002:00007f4c       ??_C@_1M@KJDONENM@?$AAa?$AAr?$AA?9?$AAs?$AAa?$AA?$AA@ 1002af4c     libucrt:lcidtoname_downlevel.obj
 0002:00007f58       ??_C@_1M@DMJDKLKM@?$AAa?$AAr?$AA?9?$AAs?$AAy?$AA?$AA@ 1002af58     libucrt:lcidtoname_downlevel.obj
 0002:00007f64       ??_C@_1M@OMFIPEDC@?$AAa?$AAr?$AA?9?$AAt?$AAn?$AA?$AA@ 1002af64     libucrt:lcidtoname_downlevel.obj
 0002:00007f70       ??_C@_1M@IHMHGAON@?$AAa?$AAr?$AA?9?$AAy?$AAe?$AA?$AA@ 1002af70     libucrt:lcidtoname_downlevel.obj
 0002:00007f7c       ??_C@_1BG@KDCPGJGB@?$AAa?$AAz?$AA?9?$AAa?$AAz?$AA?9?$AAc?$AAy?$AAr?$AAl?$AA?$AA@ 1002af7c     libucrt:lcidtoname_downlevel.obj
 0002:00007f94       ??_C@_1BG@IBCKDDOE@?$AAa?$AAz?$AA?9?$AAa?$AAz?$AA?9?$AAl?$AAa?$AAt?$AAn?$AA?$AA@ 1002af94     libucrt:lcidtoname_downlevel.obj
 0002:00007fac       ??_C@_1M@EGPFDCPD@?$AAb?$AAe?$AA?9?$AAb?$AAy?$AA?$AA@ 1002afac     libucrt:lcidtoname_downlevel.obj
 0002:00007fb8       ??_C@_1M@PCMGMCGC@?$AAb?$AAg?$AA?9?$AAb?$AAg?$AA?$AA@ 1002afb8     libucrt:lcidtoname_downlevel.obj
 0002:00007fc4       ??_C@_1M@BJBMFGOB@?$AAb?$AAn?$AA?9?$AAi?$AAn?$AA?$AA@ 1002afc4     libucrt:lcidtoname_downlevel.obj
 0002:00007fd0       ??_C@_1BG@EAKMMACD@?$AAb?$AAs?$AA?9?$AAb?$AAa?$AA?9?$AAl?$AAa?$AAt?$AAn?$AA?$AA@ 1002afd0     libucrt:lcidtoname_downlevel.obj
 0002:00007fe8       ??_C@_1M@KGADAODK@?$AAc?$AAa?$AA?9?$AAe?$AAs?$AA?$AA@ 1002afe8     libucrt:lcidtoname_downlevel.obj
 0002:00007ff4       ??_C@_1M@COAJPDHI@?$AAc?$AAs?$AA?9?$AAc?$AAz?$AA?$AA@ 1002aff4     libucrt:lcidtoname_downlevel.obj
 0002:00008000       ??_C@_1M@DHBHFONH@?$AAc?$AAy?$AA?9?$AAg?$AAb?$AA?$AA@ 1002b000     libucrt:lcidtoname_downlevel.obj
 0002:0000800c       ??_C@_1M@IMGKELGA@?$AAd?$AAa?$AA?9?$AAd?$AAk?$AA?$AA@ 1002b00c     libucrt:lcidtoname_downlevel.obj
 0002:00008018       ??_C@_1M@NNDGDNGA@?$AAd?$AAe?$AA?9?$AAa?$AAt?$AA?$AA@ 1002b018     libucrt:lcidtoname_downlevel.obj
 0002:00008024       ??_C@_1M@IKDBHEEM@?$AAd?$AAe?$AA?9?$AAc?$AAh?$AA?$AA@ 1002b024     libucrt:lcidtoname_downlevel.obj
 0002:00008030       ??_C@_1M@GFFOJMCJ@?$AAd?$AAe?$AA?9?$AAd?$AAe?$AA?$AA@ 1002b030     libucrt:lcidtoname_downlevel.obj
 0002:0000803c       ??_C@_1M@MDNLKBPM@?$AAd?$AAe?$AA?9?$AAl?$AAi?$AA?$AA@ 1002b03c     libucrt:lcidtoname_downlevel.obj
 0002:00008048       ??_C@_1M@NJBEEJNL@?$AAd?$AAe?$AA?9?$AAl?$AAu?$AA?$AA@ 1002b048     libucrt:lcidtoname_downlevel.obj
 0002:00008054       ??_C@_1O@GNNELBAP@?$AAd?$AAi?$AAv?$AA?9?$AAm?$AAv?$AA?$AA@ 1002b054     libucrt:lcidtoname_downlevel.obj
 0002:00008064       ??_C@_1M@EJLEOGAE@?$AAe?$AAl?$AA?9?$AAg?$AAr?$AA?$AA@ 1002b064     libucrt:lcidtoname_downlevel.obj
 0002:00008070       ??_C@_1M@GMPONJN@?$AAe?$AAn?$AA?9?$AAa?$AAu?$AA?$AA@ 1002b070     libucrt:lcidtoname_downlevel.obj
 0002:0000807c       ??_C@_1M@NIDIIPGF@?$AAe?$AAn?$AA?9?$AAb?$AAz?$AA?$AA@ 1002b07c     libucrt:lcidtoname_downlevel.obj
 0002:00008088       ??_C@_1M@JEHMIMFO@?$AAe?$AAn?$AA?9?$AAc?$AAa?$AA?$AA@ 1002b088     libucrt:lcidtoname_downlevel.obj
 0002:00008094       ??_C@_1M@IGMJCDLA@?$AAe?$AAn?$AA?9?$AAc?$AAb?$AA?$AA@ 1002b094     libucrt:lcidtoname_downlevel.obj
 0002:000080a0       ??_C@_1M@BNFIGBKG@?$AAe?$AAn?$AA?9?$AAg?$AAb?$AA?$AA@ 1002b0a0     libucrt:lcidtoname_downlevel.obj
 0002:000080ac       ??_C@_1M@LKIFDIGP@?$AAe?$AAn?$AA?9?$AAi?$AAe?$AA?$AA@ 1002b0ac     libucrt:lcidtoname_downlevel.obj
 0002:000080b8       ??_C@_1M@PJKFGCCO@?$AAe?$AAn?$AA?9?$AAj?$AAm?$AA?$AA@ 1002b0b8     libucrt:lcidtoname_downlevel.obj
 0002:000080c4       ??_C@_1M@KPPKEPBO@?$AAe?$AAn?$AA?9?$AAn?$AAz?$AA?$AA@ 1002b0c4     libucrt:lcidtoname_downlevel.obj
 0002:000080d0       ??_C@_1M@GMDGLDOB@?$AAe?$AAn?$AA?9?$AAp?$AAh?$AA?$AA@ 1002b0d0     libucrt:lcidtoname_downlevel.obj
 0002:000080dc       ??_C@_1M@ONGIBJNA@?$AAe?$AAn?$AA?9?$AAt?$AAt?$AA?$AA@ 1002b0dc     libucrt:lcidtoname_downlevel.obj
 0002:000080e8       ??_C@_1M@LLODPCMM@?$AAe?$AAn?$AA?9?$AAu?$AAs?$AA?$AA@ 1002b0e8     libucrt:lcidtoname_downlevel.obj
 0002:000080f4       ??_C@_1M@LAKFNPAN@?$AAe?$AAn?$AA?9?$AAz?$AAa?$AA?$AA@ 1002b0f4     libucrt:lcidtoname_downlevel.obj
 0002:00008100       ??_C@_1M@MFNHNHEO@?$AAe?$AAn?$AA?9?$AAz?$AAw?$AA?$AA@ 1002b100     libucrt:lcidtoname_downlevel.obj
 0002:0000810c       ??_C@_1M@EJEINPHM@?$AAe?$AAs?$AA?9?$AAa?$AAr?$AA?$AA@ 1002b10c     libucrt:lcidtoname_downlevel.obj
 0002:00008118       ??_C@_1M@GNKPCCJA@?$AAe?$AAs?$AA?9?$AAb?$AAo?$AA?$AA@ 1002b118     libucrt:lcidtoname_downlevel.obj
 0002:00008124       ??_C@_1M@LEEGFONL@?$AAe?$AAs?$AA?9?$AAc?$AAl?$AA?$AA@ 1002b124     libucrt:lcidtoname_downlevel.obj
 0002:00008130       ??_C@_1M@KGPDPBDF@?$AAe?$AAs?$AA?9?$AAc?$AAo?$AA?$AA@ 1002b130     libucrt:lcidtoname_downlevel.obj
 0002:0000813c       ??_C@_1M@EIAHOHH@?$AAe?$AAs?$AA?9?$AAc?$AAr?$AA?$AA@ 1002b13c     libucrt:lcidtoname_downlevel.obj
 0002:00008148       ??_C@_1M@LLPGMBIN@?$AAe?$AAs?$AA?9?$AAd?$AAo?$AA?$AA@ 1002b148     libucrt:lcidtoname_downlevel.obj
 0002:00008154       ??_C@_1M@DKHMKNJA@?$AAe?$AAs?$AA?9?$AAe?$AAc?$AA?$AA@ 1002b154     libucrt:lcidtoname_downlevel.obj
 0002:00008160       ??_C@_1M@GKGFPKAP@?$AAe?$AAs?$AA?9?$AAe?$AAs?$AA?$AA@ 1002b160     libucrt:lcidtoname_downlevel.obj
 0002:0000816c       ??_C@_1M@LKHKGDLN@?$AAe?$AAs?$AA?9?$AAg?$AAt?$AA?$AA@ 1002b16c     libucrt:lcidtoname_downlevel.obj
 0002:00008178       ??_C@_1M@HEIIGGJD@?$AAe?$AAs?$AA?9?$AAh?$AAn?$AA?$AA@ 1002b178     libucrt:lcidtoname_downlevel.obj
 0002:00008184       ??_C@_1M@FBDHPPGD@?$AAe?$AAs?$AA?9?$AAm?$AAx?$AA?$AA@ 1002b184     libucrt:lcidtoname_downlevel.obj
 0002:00008190       ??_C@_1M@DPAGLNDH@?$AAe?$AAs?$AA?9?$AAn?$AAi?$AA?$AA@ 1002b190     libucrt:lcidtoname_downlevel.obj
 0002:0000819c       ??_C@_1M@MDGOPGDD@?$AAe?$AAs?$AA?9?$AAp?$AAa?$AA?$AA@ 1002b19c     libucrt:lcidtoname_downlevel.obj
 0002:000081a8       ??_C@_1M@EMAMGBGE@?$AAe?$AAs?$AA?9?$AAp?$AAe?$AA?$AA@ 1002b1a8     libucrt:lcidtoname_downlevel.obj
 0002:000081b4       ??_C@_1M@IBMCAOEC@?$AAe?$AAs?$AA?9?$AAp?$AAr?$AA?$AA@ 1002b1b4     libucrt:lcidtoname_downlevel.obj
 0002:000081c0       ??_C@_1M@FGMDIJED@?$AAe?$AAs?$AA?9?$AAp?$AAy?$AA?$AA@ 1002b1c0     libucrt:lcidtoname_downlevel.obj
 0002:000081cc       ??_C@_1M@IIDEOLLL@?$AAe?$AAs?$AA?9?$AAs?$AAv?$AA?$AA@ 1002b1cc     libucrt:lcidtoname_downlevel.obj
 0002:000081d8       ??_C@_1M@GAOBIPA@?$AAe?$AAs?$AA?9?$AAu?$AAy?$AA?$AA@ 1002b1d8     libucrt:lcidtoname_downlevel.obj
 0002:000081e4       ??_C@_1M@JKFFICHJ@?$AAe?$AAs?$AA?9?$AAv?$AAe?$AA?$AA@ 1002b1e4     libucrt:lcidtoname_downlevel.obj
 0002:000081f0       ??_C@_1M@PNMLOJDF@?$AAe?$AAt?$AA?9?$AAe?$AAe?$AA?$AA@ 1002b1f0     libucrt:lcidtoname_downlevel.obj
 0002:000081fc       ??_C@_1M@GHHLIKEI@?$AAe?$AAu?$AA?9?$AAe?$AAs?$AA?$AA@ 1002b1fc     libucrt:lcidtoname_downlevel.obj
 0002:00008208       ??_C@_1M@PBNONODE@?$AAf?$AAa?$AA?9?$AAi?$AAr?$AA?$AA@ 1002b208     libucrt:lcidtoname_downlevel.obj
 0002:00008214       ??_C@_1M@JEEHPMIL@?$AAf?$AAi?$AA?9?$AAf?$AAi?$AA?$AA@ 1002b214     libucrt:lcidtoname_downlevel.obj
 0002:00008220       ??_C@_1M@LMDCNDBA@?$AAf?$AAo?$AA?9?$AAf?$AAo?$AA?$AA@ 1002b220     libucrt:lcidtoname_downlevel.obj
 0002:0000822c       ??_C@_1M@JKEOHLDK@?$AAf?$AAr?$AA?9?$AAb?$AAe?$AA?$AA@ 1002b22c     libucrt:lcidtoname_downlevel.obj
 0002:00008238       ??_C@_1M@NOHADPMI@?$AAf?$AAr?$AA?9?$AAc?$AAa?$AA?$AA@ 1002b238     libucrt:lcidtoname_downlevel.obj
 0002:00008244       ??_C@_1M@KDHIHAEC@?$AAf?$AAr?$AA?9?$AAc?$AAh?$AA?$AA@ 1002b244     libucrt:lcidtoname_downlevel.obj
 0002:00008250       ??_C@_1M@MMBBFGAK@?$AAf?$AAr?$AA?9?$AAf?$AAr?$AA?$AA@ 1002b250     libucrt:lcidtoname_downlevel.obj
 0002:0000825c       ??_C@_1M@PAFNENNF@?$AAf?$AAr?$AA?9?$AAl?$AAu?$AA?$AA@ 1002b25c     libucrt:lcidtoname_downlevel.obj
 0002:00008268       ??_C@_1M@EOHDJGDD@?$AAf?$AAr?$AA?9?$AAm?$AAc?$AA?$AA@ 1002b268     libucrt:lcidtoname_downlevel.obj
 0002:00008274       ??_C@_1M@FAPLLOPF@?$AAg?$AAl?$AA?9?$AAe?$AAs?$AA?$AA@ 1002b274     libucrt:lcidtoname_downlevel.obj
 0002:00008280       ??_C@_1M@FOPBFLOO@?$AAg?$AAu?$AA?9?$AAi?$AAn?$AA?$AA@ 1002b280     libucrt:lcidtoname_downlevel.obj
 0002:0000828c       ??_C@_1M@KBMCINPM@?$AAh?$AAe?$AA?9?$AAi?$AAl?$AA?$AA@ 1002b28c     libucrt:lcidtoname_downlevel.obj
 0002:00008298       ??_C@_1M@BBPHKFPJ@?$AAh?$AAi?$AA?9?$AAi?$AAn?$AA?$AA@ 1002b298     libucrt:lcidtoname_downlevel.obj
 0002:000082a4       ??_C@_1M@PMBNDPHD@?$AAh?$AAr?$AA?9?$AAb?$AAa?$AA?$AA@ 1002b2a4     libucrt:lcidtoname_downlevel.obj
 0002:000082b0       ??_C@_1M@BPCKOEGE@?$AAh?$AAr?$AA?9?$AAh?$AAr?$AA?$AA@ 1002b2b0     libucrt:lcidtoname_downlevel.obj
 0002:000082bc       ??_C@_1M@GACBMHKE@?$AAh?$AAu?$AA?9?$AAh?$AAu?$AA?$AA@ 1002b2bc     libucrt:lcidtoname_downlevel.obj
 0002:000082c8       ??_C@_1M@MILPAJJC@?$AAh?$AAy?$AA?9?$AAa?$AAm?$AA?$AA@ 1002b2c8     libucrt:lcidtoname_downlevel.obj
 0002:000082d4       ??_C@_1M@BABBICEC@?$AAi?$AAd?$AA?9?$AAi?$AAd?$AA?$AA@ 1002b2d4     libucrt:lcidtoname_downlevel.obj
 0002:000082e0       ??_C@_1M@BIKNHHPF@?$AAi?$AAs?$AA?9?$AAi?$AAs?$AA?$AA@ 1002b2e0     libucrt:lcidtoname_downlevel.obj
 0002:000082ec       ??_C@_1M@NMPCJPHE@?$AAi?$AAt?$AA?9?$AAc?$AAh?$AA?$AA@ 1002b2ec     libucrt:lcidtoname_downlevel.obj
 0002:000082f8       ??_C@_1M@GHKGFEDF@?$AAi?$AAt?$AA?9?$AAi?$AAt?$AA?$AA@ 1002b2f8     libucrt:lcidtoname_downlevel.obj
 0002:00008304       ??_C@_1M@NIEJCJJA@?$AAj?$AAa?$AA?9?$AAj?$AAp?$AA?$AA@ 1002b304     libucrt:lcidtoname_downlevel.obj
 0002:00008310       ??_C@_1M@JILFNBIM@?$AAk?$AAa?$AA?9?$AAg?$AAe?$AA?$AA@ 1002b310     libucrt:lcidtoname_downlevel.obj
 0002:0000831c       ??_C@_1M@PACPMGPH@?$AAk?$AAk?$AA?9?$AAk?$AAz?$AA?$AA@ 1002b31c     libucrt:lcidtoname_downlevel.obj
 0002:00008328       ??_C@_1M@IELFGMHA@?$AAk?$AAn?$AA?9?$AAi?$AAn?$AA?$AA@ 1002b328     libucrt:lcidtoname_downlevel.obj
 0002:00008334       ??_C@_1O@IBBJHCH@?$AAk?$AAo?$AAk?$AA?9?$AAi?$AAn?$AA?$AA@ 1002b334     libucrt:lcidtoname_downlevel.obj
 0002:00008344       ??_C@_1M@DMHAEOGC@?$AAk?$AAo?$AA?9?$AAk?$AAr?$AA?$AA@ 1002b344     libucrt:lcidtoname_downlevel.obj
 0002:00008350       ??_C@_1M@HBAHBIGA@?$AAk?$AAy?$AA?9?$AAk?$AAg?$AA?$AA@ 1002b350     libucrt:lcidtoname_downlevel.obj
 0002:0000835c       ??_C@_1M@KPMILCJG@?$AAl?$AAt?$AA?9?$AAl?$AAt?$AA?$AA@ 1002b35c     libucrt:lcidtoname_downlevel.obj
 0002:00008368       ??_C@_1M@BDEKKCA@?$AAl?$AAv?$AA?9?$AAl?$AAv?$AA?$AA@ 1002b368     libucrt:lcidtoname_downlevel.obj
 0002:00008374       ??_C@_1M@ELCKCCJJ@?$AAm?$AAi?$AA?9?$AAn?$AAz?$AA?$AA@ 1002b374     libucrt:lcidtoname_downlevel.obj
 0002:00008380       ??_C@_1M@CBOOLAPA@?$AAm?$AAk?$AA?9?$AAm?$AAk?$AA?$AA@ 1002b380     libucrt:lcidtoname_downlevel.obj
 0002:0000838c       ??_C@_1M@GPHNBJKN@?$AAm?$AAl?$AA?9?$AAi?$AAn?$AA?$AA@ 1002b38c     libucrt:lcidtoname_downlevel.obj
 0002:00008398       ??_C@_1M@PABJILIG@?$AAm?$AAn?$AA?9?$AAm?$AAn?$AA?$AA@ 1002b398     libucrt:lcidtoname_downlevel.obj
 0002:000083a4       ??_C@_1M@FGBKKIPG@?$AAm?$AAr?$AA?9?$AAi?$AAn?$AA?$AA@ 1002b3a4     libucrt:lcidtoname_downlevel.obj
 0002:000083b0       ??_C@_1M@NDBPDDAL@?$AAm?$AAs?$AA?9?$AAb?$AAn?$AA?$AA@ 1002b3b0     libucrt:lcidtoname_downlevel.obj
 0002:000083bc       ??_C@_1M@OPIHOOPI@?$AAm?$AAs?$AA?9?$AAm?$AAy?$AA?$AA@ 1002b3bc     libucrt:lcidtoname_downlevel.obj
 0002:000083c8       ??_C@_1M@PPDBCNFM@?$AAm?$AAt?$AA?9?$AAm?$AAt?$AA?$AA@ 1002b3c8     libucrt:lcidtoname_downlevel.obj
 0002:000083d4       ??_C@_1M@KDJDKMDD@?$AAn?$AAb?$AA?9?$AAn?$AAo?$AA?$AA@ 1002b3d4     libucrt:lcidtoname_downlevel.obj
 0002:000083e0       ??_C@_1M@KFCFLMJP@?$AAn?$AAl?$AA?9?$AAb?$AAe?$AA?$AA@ 1002b3e0     libucrt:lcidtoname_downlevel.obj
 0002:000083ec       ??_C@_1M@KPOPDDGO@?$AAn?$AAl?$AA?9?$AAn?$AAl?$AA?$AA@ 1002b3ec     libucrt:lcidtoname_downlevel.obj
 0002:000083f8       ??_C@_1M@LJKPEMLN@?$AAn?$AAn?$AA?9?$AAn?$AAo?$AA?$AA@ 1002b3f8     libucrt:lcidtoname_downlevel.obj
 0002:00008404       ??_C@_1M@BDGHHBFL@?$AAn?$AAs?$AA?9?$AAz?$AAa?$AA?$AA@ 1002b404     libucrt:lcidtoname_downlevel.obj
 0002:00008410       ??_C@_1M@IDEHOAP@?$AAp?$AAa?$AA?9?$AAi?$AAn?$AA?$AA@ 1002b410     libucrt:lcidtoname_downlevel.obj
 0002:0000841c       ??_C@_1M@HDBKGOGH@?$AAp?$AAl?$AA?9?$AAp?$AAl?$AA?$AA@ 1002b41c     libucrt:lcidtoname_downlevel.obj
 0002:00008428       ??_C@_1M@LJLLCMEH@?$AAp?$AAt?$AA?9?$AAb?$AAr?$AA?$AA@ 1002b428     libucrt:lcidtoname_downlevel.obj
 0002:00008434       ??_C@_1M@NCMONAAL@?$AAp?$AAt?$AA?9?$AAp?$AAt?$AA?$AA@ 1002b434     libucrt:lcidtoname_downlevel.obj
 0002:00008440       ??_C@_1O@EAKMAJDN@?$AAq?$AAu?$AAz?$AA?9?$AAb?$AAo?$AA?$AA@ 1002b440     libucrt:lcidtoname_downlevel.obj
 0002:00008450       ??_C@_1O@BHHPIGDN@?$AAq?$AAu?$AAz?$AA?9?$AAe?$AAc?$AA?$AA@ 1002b450     libucrt:lcidtoname_downlevel.obj
 0002:00008460       ??_C@_1O@GBAPEKMJ@?$AAq?$AAu?$AAz?$AA?9?$AAp?$AAe?$AA?$AA@ 1002b460     libucrt:lcidtoname_downlevel.obj
 0002:00008470       ??_C@_1M@CLGLEFBO@?$AAr?$AAo?$AA?9?$AAr?$AAo?$AA?$AA@ 1002b470     libucrt:lcidtoname_downlevel.obj
 0002:0000847c       ??_C@_1M@CEEDODME@?$AAr?$AAu?$AA?9?$AAr?$AAu?$AA?$AA@ 1002b47c     libucrt:lcidtoname_downlevel.obj
 0002:00008488       ??_C@_1M@HPKKKMPP@?$AAs?$AAa?$AA?9?$AAi?$AAn?$AA?$AA@ 1002b488     libucrt:lcidtoname_downlevel.obj
 0002:00008494       ??_C@_1M@BKMAIGOJ@?$AAs?$AAe?$AA?9?$AAf?$AAi?$AA?$AA@ 1002b494     libucrt:lcidtoname_downlevel.obj
 0002:000084a0       ??_C@_1M@NDPIFLFI@?$AAs?$AAe?$AA?9?$AAn?$AAo?$AA?$AA@ 1002b4a0     libucrt:lcidtoname_downlevel.obj
 0002:000084ac       ??_C@_1M@DANKKHJ@?$AAs?$AAe?$AA?9?$AAs?$AAe?$AA?$AA@ 1002b4ac     libucrt:lcidtoname_downlevel.obj
 0002:000084b8       ??_C@_1M@PNBLONPJ@?$AAs?$AAk?$AA?9?$AAs?$AAk?$AA?$AA@ 1002b4b8     libucrt:lcidtoname_downlevel.obj
 0002:000084c4       ??_C@_1M@LFMODOAL@?$AAs?$AAl?$AA?9?$AAs?$AAi?$AA?$AA@ 1002b4c4     libucrt:lcidtoname_downlevel.obj
 0002:000084d0       ??_C@_1O@DFKOMPG@?$AAs?$AAm?$AAa?$AA?9?$AAn?$AAo?$AA?$AA@ 1002b4d0     libucrt:lcidtoname_downlevel.obj
 0002:000084e0       ??_C@_1O@NDKPBNNH@?$AAs?$AAm?$AAa?$AA?9?$AAs?$AAe?$AA?$AA@ 1002b4e0     libucrt:lcidtoname_downlevel.obj
 0002:000084f0       ??_C@_1O@PLLKBHAB@?$AAs?$AAm?$AAj?$AA?9?$AAn?$AAo?$AA?$AA@ 1002b4f0     libucrt:lcidtoname_downlevel.obj
 0002:00008500       ??_C@_1O@CLEPOGCA@?$AAs?$AAm?$AAj?$AA?9?$AAs?$AAe?$AA?$AA@ 1002b500     libucrt:lcidtoname_downlevel.obj
 0002:00008510       ??_C@_1O@DLGJGKMK@?$AAs?$AAm?$AAn?$AA?9?$AAf?$AAi?$AA?$AA@ 1002b510     libucrt:lcidtoname_downlevel.obj
 0002:00008520       ??_C@_1O@OJDJGAJC@?$AAs?$AAm?$AAs?$AA?9?$AAf?$AAi?$AA?$AA@ 1002b520     libucrt:lcidtoname_downlevel.obj
 0002:00008530       ??_C@_1M@BOFOGHPB@?$AAs?$AAq?$AA?9?$AAa?$AAl?$AA?$AA@ 1002b530     libucrt:lcidtoname_downlevel.obj
 0002:0000853c       ??_C@_1BG@LJBBIPGB@?$AAs?$AAr?$AA?9?$AAb?$AAa?$AA?9?$AAc?$AAy?$AAr?$AAl?$AA?$AA@ 1002b53c     libucrt:lcidtoname_downlevel.obj
 0002:00008554       ??_C@_1BG@JLBENFOE@?$AAs?$AAr?$AA?9?$AAb?$AAa?$AA?9?$AAl?$AAa?$AAt?$AAn?$AA?$AA@ 1002b554     libucrt:lcidtoname_downlevel.obj
 0002:0000856c       ??_C@_1BG@KODPNHE@?$AAs?$AAr?$AA?9?$AAs?$AAp?$AA?9?$AAc?$AAy?$AAr?$AAl?$AA?$AA@ 1002b56c     libucrt:lcidtoname_downlevel.obj
 0002:00008584       ??_C@_1BG@CIOGKHPB@?$AAs?$AAr?$AA?9?$AAs?$AAp?$AA?9?$AAl?$AAa?$AAt?$AAn?$AA?$AA@ 1002b584     libucrt:lcidtoname_downlevel.obj
 0002:0000859c       ??_C@_1M@NGFJLMAC@?$AAs?$AAv?$AA?9?$AAf?$AAi?$AA?$AA@ 1002b59c     libucrt:lcidtoname_downlevel.obj
 0002:000085a8       ??_C@_1M@MPJEJAJC@?$AAs?$AAv?$AA?9?$AAs?$AAe?$AA?$AA@ 1002b5a8     libucrt:lcidtoname_downlevel.obj
 0002:000085b4       ??_C@_1M@MPNDHLFK@?$AAs?$AAw?$AA?9?$AAk?$AAe?$AA?$AA@ 1002b5b4     libucrt:lcidtoname_downlevel.obj
 0002:000085c0       ??_C@_1O@KOHBJJI@?$AAs?$AAy?$AAr?$AA?9?$AAs?$AAy?$AA?$AA@ 1002b5c0     libucrt:lcidtoname_downlevel.obj
 0002:000085d0       ??_C@_1M@LDCEFHA@?$AAt?$AAa?$AA?9?$AAi?$AAn?$AA?$AA@ 1002b5d0     libucrt:lcidtoname_downlevel.obj
 0002:000085dc       ??_C@_1M@CNJOFAK@?$AAt?$AAe?$AA?9?$AAi?$AAn?$AA?$AA@ 1002b5dc     libucrt:lcidtoname_downlevel.obj
 0002:000085e8       ??_C@_1M@GNAECACD@?$AAt?$AAh?$AA?9?$AAt?$AAh?$AA?$AA@ 1002b5e8     libucrt:lcidtoname_downlevel.obj
 0002:000085f4       ??_C@_1M@CHBIHOJO@?$AAt?$AAn?$AA?9?$AAz?$AAa?$AA?$AA@ 1002b5f4     libucrt:lcidtoname_downlevel.obj
 0002:00008600       ??_C@_1M@GCCMIGPJ@?$AAt?$AAr?$AA?9?$AAt?$AAr?$AA?$AA@ 1002b600     libucrt:lcidtoname_downlevel.obj
 0002:0000860c       ??_C@_1M@CELMCNBK@?$AAt?$AAt?$AA?9?$AAr?$AAu?$AA?$AA@ 1002b60c     libucrt:lcidtoname_downlevel.obj
 0002:00008618       ??_C@_1M@KLMCELGA@?$AAu?$AAk?$AA?9?$AAu?$AAa?$AA?$AA@ 1002b618     libucrt:lcidtoname_downlevel.obj
 0002:00008624       ??_C@_1M@EPAJJAJF@?$AAu?$AAr?$AA?9?$AAp?$AAk?$AA?$AA@ 1002b624     libucrt:lcidtoname_downlevel.obj
 0002:00008630       ??_C@_1BG@GEGPMCDJ@?$AAu?$AAz?$AA?9?$AAu?$AAz?$AA?9?$AAc?$AAy?$AAr?$AAl?$AA?$AA@ 1002b630     libucrt:lcidtoname_downlevel.obj
 0002:00008648       ??_C@_1BG@EGGKJILM@?$AAu?$AAz?$AA?9?$AAu?$AAz?$AA?9?$AAl?$AAa?$AAt?$AAn?$AA?$AA@ 1002b648     libucrt:lcidtoname_downlevel.obj
 0002:00008660       ??_C@_1M@GFOCLFF@?$AAv?$AAi?$AA?9?$AAv?$AAn?$AA?$AA@ 1002b660     libucrt:lcidtoname_downlevel.obj
 0002:0000866c       ??_C@_1M@CPAMEDFI@?$AAx?$AAh?$AA?9?$AAz?$AAa?$AA?$AA@ 1002b66c     libucrt:lcidtoname_downlevel.obj
 0002:00008678       ??_C@_1O@EBKIFIGN@?$AAz?$AAh?$AA?9?$AAc?$AAh?$AAs?$AA?$AA@ 1002b678     libucrt:lcidtoname_downlevel.obj
 0002:00008688       ??_C@_1O@NMHPGANE@?$AAz?$AAh?$AA?9?$AAc?$AAh?$AAt?$AA?$AA@ 1002b688     libucrt:lcidtoname_downlevel.obj
 0002:00008698       ??_C@_1M@LPINJOMC@?$AAz?$AAh?$AA?9?$AAc?$AAn?$AA?$AA@ 1002b698     libucrt:lcidtoname_downlevel.obj
 0002:000086a4       ??_C@_1M@OCJEJODD@?$AAz?$AAh?$AA?9?$AAh?$AAk?$AA?$AA@ 1002b6a4     libucrt:lcidtoname_downlevel.obj
 0002:000086b0       ??_C@_1M@DNDLJINH@?$AAz?$AAh?$AA?9?$AAm?$AAo?$AA?$AA@ 1002b6b0     libucrt:lcidtoname_downlevel.obj
 0002:000086bc       ??_C@_1M@MBFDNDND@?$AAz?$AAh?$AA?9?$AAs?$AAg?$AA?$AA@ 1002b6bc     libucrt:lcidtoname_downlevel.obj
 0002:000086c8       ??_C@_1M@IMEPLEPE@?$AAz?$AAh?$AA?9?$AAt?$AAw?$AA?$AA@ 1002b6c8     libucrt:lcidtoname_downlevel.obj
 0002:000086d4       ??_C@_1M@BBGHNHJP@?$AAz?$AAu?$AA?9?$AAz?$AAa?$AA?$AA@ 1002b6d4     libucrt:lcidtoname_downlevel.obj
 0002:000086e0       ___acrt_pow_rcp_t1         1002b6e0     libucrt:pow_tables.obj
 0002:00008af0       ___acrt_pow_log2_t1        1002baf0     libucrt:pow_tables.obj
 0002:00009300       ___acrt_pow_rcp_t2         1002c300     libucrt:pow_tables.obj
 0002:00009710       ___acrt_pow_log2_t2        1002c710     libucrt:pow_tables.obj
 0002:00009f20       ___acrt_pow_rcp_t3         1002cf20     libucrt:pow_tables.obj
 0002:0000a730       ___acrt_pow_log2_t3        1002d730     libucrt:pow_tables.obj
 0002:0000b740       ___acrt_pow_clv            1002e740     libucrt:pow_tables.obj
 0002:0000b760       ___acrt_pow_exp2_tbl       1002e760     libucrt:pow_tables.obj
 0002:0000bfb8       ??_C@_1BA@BALFACEM@?$AAC?$AAO?$AAN?$AAO?$AAU?$AAT?$AA$?$AA?$AA@ 1002efb8     libucrt:initcon.obj
 0002:0000c0d0       ___acrt_log10_table_t      1002f0d0     libucrt:log10_tables.obj
 0002:0000c4e0       ___acrt_log10_table_cb     1002f4e0     libucrt:log10_tables.obj
 0002:0000c8f0       ??_C@_1BK@DBDEIDLH@?$AAK?$AAE?$AAR?$AAN?$AAE?$AAL?$AA3?$AA2?$AA?4?$AAD?$AAL?$AAL@ 1002f8f0     DelayImp:delayhlp.obj
 0002:0000c90c       ___pfnDliFailureHook2      1002f90c     DelayImp:delayhk1.obj
 0002:0000c910       __load_config_used         1002f910     LIBCMT:loadcfg.obj
 0002:0000c9b0       ??_C@_0DI@IJOJONHO@d?3?2dev?2nodeaddons?2ntdirect32?2nt@ 1002f9b0     main.obj
 0002:0000c9e8       ??_C@_0L@DODPNJFG@NTDirect32@ 1002f9e8     main.obj
 0002:0000c9f4       ??_C@_0BC@BDKFLDHL@unknown?5exception@ 1002f9f4     api.obj
 0002:0000ca08       ??_C@_0BA@ELKIONDK@bad?5locale?5name@ 1002fa08     api.obj
 0002:0000ca18       ??_C@_00CNPNBAHC@@         1002fa18     api.obj
 0002:0000ca1c       ??_C@_02LMMGGCAJ@?3?5@     1002fa1c     api.obj
 0002:0000ca20       ??_C@_08LLGCOLLL@iostream@ 1002fa20     api.obj
 0002:0000ca2c       ??_C@_0BG@PADBLCHM@iostream?5stream?5error@ 1002fa2c     api.obj
 0002:0000ca44       ??_C@_0BF@PHHKMMFD@ios_base?3?3badbit?5set@ 1002fa44     api.obj
 0002:0000ca5c       ??_C@_0BG@FMKFHCIL@ios_base?3?3failbit?5set@ 1002fa5c     api.obj
 0002:0000ca74       ??_C@_0BF@OOHOMBOF@ios_base?3?3eofbit?5set@ 1002fa74     api.obj
 0002:0000ca8c       ??_C@_0BJ@GLEIFKFN@napi_get_last_error_info@ 1002fa8c     api.obj
 0002:0000caa8       ??_C@_0L@HGGLHLEF@Error?3?3New@ 1002faa8     api.obj
 0002:0000cab4       ??_C@_0CC@POCGFFOK@napi_get_and_clear_last_excepti@ 1002fab4     api.obj
 0002:0000cad8       ??_C@_0BJ@JAPLLJGC@Error?5in?5native?5callback@ 1002fad8     api.obj
 0002:0000caf4       ??_C@_0BK@JOKHAPGN@napi_is_exception_pending@ 1002faf4     api.obj
 0002:0000cb10       ??_C@_0BI@LICPADOD@napi_create_string_utf8@ 1002fb10     api.obj
 0002:0000cb28       ??_C@_0BC@MIFMGDHH@napi_create_error@ 1002fb28     api.obj
 0002:0000cb3c       ??_C@_0BG@LGKKPCKG@napi_create_reference@ 1002fb3c     api.obj
 0002:0000cb54       ??_C@_0N@JLICLJJF@Error?3?3Error@ 1002fb54     api.obj
 0002:0000cb64       ??_C@_09IPAEKDAI@localhost@ 1002fb64     api.obj
 0002:0000cb70       ??_C@_0CA@KMHKOLGC@Price?5param?5was?5not?5passed?3?3ask@ 1002fb70     api.obj
 0002:0000cb90       ??_C@_0BP@PGDNKCAB@Size?5param?5was?5not?5passed?3?3ask@ 1002fb90     api.obj
 0002:0000cbb0       ??_C@_0CG@IKMFALKC@Price?5or?5Size?5param?5can?5not?5be?5@ 1002fbb0     api.obj
 0002:0000cbd8       ??_C@_0CI@NEANJFJP@Price?5param?5was?5not?5passed?3?3ask@ 1002fbd8     api.obj
 0002:0000cc00       ??_C@_0CH@DLAEOPND@Size?5param?5was?5not?5passed?3?3askP@ 1002fc00     api.obj
 0002:0000cc28       ??_C@_0CM@CMMBBIIF@Timestamp?5param?5was?5not?5passed?3@ 1002fc28     api.obj
 0002:0000cc54       ??_C@_0CO@IBGAPLL@Price?5or?5Size?5param?5can?5not?5be?5@ 1002fc54     api.obj
 0002:0000cc84       ??_C@_0CL@IKNMFANP@OrderId?5param?5was?5not?5passed?3?3a@ 1002fc84     api.obj
 0002:0000ccb0       ??_C@_0CA@CIOGHOOF@Price?5param?5was?5not?5passed?3?3bid@ 1002fcb0     api.obj
 0002:0000ccd0       ??_C@_0BP@HCKBDHIG@Size?5param?5was?5not?5passed?3?3bid@ 1002fcd0     api.obj
 0002:0000ccf0       ??_C@_0CG@OFJJOCF@Price?5or?5Size?5param?5can?5not?5be?5@ 1002fcf0     api.obj
 0002:0000cd18       ??_C@_0CI@BOMBIAKN@Price?5param?5was?5not?5passed?3?3bid@ 1002fd18     api.obj
 0002:0000cd40       ??_C@_0CH@PBMIPKOB@Size?5param?5was?5not?5passed?3?3bidP@ 1002fd40     api.obj
 0002:0000cd68       ??_C@_0CM@OGANANLH@Timestamp?5param?5was?5not?5passed?3@ 1002fd68     api.obj
 0002:0000cd94       ??_C@_0CO@MCNKBKIJ@Price?5or?5Size?5param?5can?5not?5be?5@ 1002fd94     api.obj
 0002:0000cdc4       ??_C@_0CI@EBIIEJIH@OrderId?5param?5was?5not?5passed?3?3c@ 1002fdc4     api.obj
 0002:0000cdec       ??_C@_0CB@PIPGGPAA@Price?5param?5was?5not?5passed?3?3las@ 1002fdec     api.obj
 0002:0000ce10       ??_C@_0CA@CMBHBIKL@Size?5param?5was?5not?5passed?3?3last@ 1002fe10     api.obj
 0002:0000ce30       ??_C@_0CH@GDLEBCFA@Price?5or?5Size?5param?5can?5not?5be?5@ 1002fe30     api.obj
 0002:0000ce58       ??_C@_0CJ@JOHLEBBA@Price?5param?5was?5not?5passed?3?3las@ 1002fe58     api.obj
 0002:0000ce84       ??_C@_0CI@OBPOEFNB@Size?5param?5was?5not?5passed?3?3last@ 1002fe84     api.obj
 0002:0000ceac       ??_C@_0CN@GDOBHEOH@Timestamp?5param?5was?5not?5passed?3@ 1002feac     api.obj
 0002:0000cedc       ??_C@_0CP@KCKELOFL@Price?5or?5Size?5param?5can?5not?5be?5@ 1002fedc     api.obj
 0002:0000cf0c       ??_C@_0CG@BBCCGCAM@Type?5param?5was?5not?5passed?3?3mark@ 1002ff0c     api.obj
 0002:0000cf34       ??_C@_05BFKKPKCG@short@    1002ff34     api.obj
 0002:0000cf3c       ??_C@_04FMBJNPFB@flat@     1002ff3c     api.obj
 0002:0000cf44       ??_C@_04GOKPGOLB@long@     1002ff44     api.obj
 0002:0000cf4c       ??_C@_0CL@DCEGLPGF@Order?5Id?5param?5was?5not?5passed?3?3@ 1002ff4c     api.obj
 0002:0000cf78       ??_C@_0CN@GGPGCMBG@Strategy?5ID?5param?5was?5not?5passe@ 1002ff78     api.obj
 0002:0000cfa8       ??_C@_0DD@MGJJJCHM@Strategy?5ID?5param?5was?5not?5passe@ 1002ffa8     api.obj
 0002:0000cfdc       ??_C@_0CP@KMPEJCLO@Strategy?5ID?5param?5was?5not?5passe@ 1002ffdc     api.obj
 0002:0000d00c       ??_C@_0CE@EINHMEFD@config?5param?5was?5not?5passed?3?3co@ 1003000c     api.obj
 0002:0000d030       ??_C@_04OODOLJMA@host@     10030030     api.obj
 0002:0000d038       ??_C@_04LPGMAPLE@port@     10030038     api.obj
 0002:0000d040       ??_C@_07PMDLEBNF@account@  10030040     api.obj
 0002:0000d048       ??_C@_0L@NFKDABHC@instrument@ 10030048     api.obj
 0002:0000d054       ??_C@_03INJPNEOA@ask@      10030054     api.obj
 0002:0000d058       ??_C@_0M@CBBAEOAG@askPlayback@ 10030058     api.obj
 0002:0000d064       ??_C@_0O@LABPDHFB@avgEntryPrice@ 10030064     api.obj
 0002:0000d074       ??_C@_0N@KCOJCHDO@avgFillPrice@ 10030074     api.obj
 0002:0000d084       ??_C@_03JADEBGH@bid@       10030084     api.obj
 0002:0000d088       ??_C@_0M@OLNMFLDE@bidPlayback@ 10030088     api.obj
 0002:0000d094       ??_C@_0M@MMLAOAI@buyingPower@ 10030094     api.obj
 0002:0000d0a0       ??_C@_09LCPOOBBJ@cashValue@ 100300a0     api.obj
 0002:0000d0ac       ??_C@_0O@PBLEFIKC@confirmOrders@ 100300ac     api.obj
 0002:0000d0bc       ??_C@_09JGOMOAGJ@connected@ 100300bc     api.obj
 0002:0000d0c8       ??_C@_06MHLBHCFD@filled@   100300c8     api.obj
 0002:0000d0d0       ??_C@_04PLGBGIDD@last@     100300d0     api.obj
 0002:0000d0d8       ??_C@_0N@BHFNHHCL@lastPlayback@ 100300d8     api.obj
 0002:0000d0e8       ??_C@_0L@CKADHFMM@marketData@ 100300e8     api.obj
 0002:0000d0f4       ??_C@_0P@KBOMOIAO@marketPosition@ 100300f4     api.obj
 0002:0000d104       ??_C@_0O@CCOHPHBP@getNewOrderId@ 10030104     api.obj
 0002:0000d114       ??_C@_0M@MMIGICJC@orderStatus@ 10030114     api.obj
 0002:0000d120       ??_C@_0M@IPBFJDGP@realizedPnL@ 10030120     api.obj
 0002:0000d12c       ??_C@_05DDEMHLGI@setUp@    1003012c     api.obj
 0002:0000d134       ??_C@_0L@OEBEGJAL@stopOrders@ 10030134     api.obj
 0002:0000d140       ??_C@_0L@KJCCEOIO@strategies@ 10030140     api.obj
 0002:0000d14c       ??_C@_0BB@HHAFBCFN@strategyPosition@ 1003014c     api.obj
 0002:0000d160       ??_C@_0BE@HJFFIKAM@subscribeMarketData@ 10030160     api.obj
 0002:0000d174       ??_C@_0N@FFCOMJFP@targetOrders@ 10030174     api.obj
 0002:0000d184       ??_C@_08OCKODCOI@teardown@ 10030184     api.obj
 0002:0000d190       ??_C@_0BG@MOOAMIHN@unsubscribeMarketData@ 10030190     api.obj
 0002:0000d1a8       ??_C@_06HEJKKHEK@config@   100301a8     api.obj
 0002:0000d1b0       ??_C@_0BI@CFPLBAOH@invalid?5string?5position@ 100301b0     api.obj
 0002:0000d1c8       ??_C@_0BA@JFNIOLAK@string?5too?5long@ 100301c8     api.obj
 0002:0000d1d8       ??_7exception@stdext@@6B@  100301d8     api.obj
 0002:0000d1e4       ??_C@_08HCOMDCCD@iojs?4exe@ 100301e4     win_delay_load_hook.obj
 0002:0000d1f0       ??_C@_08JDDNMFDB@node?4exe@ 100301f0     win_delay_load_hook.obj
 0002:0000d1fc       ___pfnDliNotifyHook2       100301fc     win_delay_load_hook.obj
 0002:0000d200       __real@0000000000000000    10030200     api.obj
 0002:0000d280       ??_R4exception@std@@6B@    10030280     libcpmt:xonce.obj
 0002:0000d294       ??_R3exception@std@@8      10030294     libcpmt:xonce.obj
 0002:0000d2a4       ??_R2exception@std@@8      100302a4     libcpmt:xonce.obj
 0002:0000d2ac       ??_R1A@?0A@EA@exception@std@@8 100302ac     libcpmt:xonce.obj
 0002:0000d2c8       ??_R4runtime_error@std@@6B@ 100302c8     libcpmt:xonce.obj
 0002:0000d2dc       ??_R3runtime_error@std@@8  100302dc     libcpmt:xonce.obj
 0002:0000d2ec       ??_R2runtime_error@std@@8  100302ec     libcpmt:xonce.obj
 0002:0000d2f8       ??_R1A@?0A@EA@runtime_error@std@@8 100302f8     libcpmt:xonce.obj
 0002:0000d314       ??_R3error_category@std@@8 10030314     libcpmt:xonce.obj
 0002:0000d324       ??_R2error_category@std@@8 10030324     libcpmt:xonce.obj
 0002:0000d32c       ??_R1A@?0A@EA@error_category@std@@8 1003032c     libcpmt:xonce.obj
 0002:0000d348       ??_R4_System_error@std@@6B@ 10030348     libcpmt:xonce.obj
 0002:0000d35c       ??_R3_System_error@std@@8  1003035c     libcpmt:xonce.obj
 0002:0000d36c       ??_R2_System_error@std@@8  1003036c     libcpmt:xonce.obj
 0002:0000d37c       ??_R1A@?0A@EA@_System_error@std@@8 1003037c     libcpmt:xonce.obj
 0002:0000d398       ??_R3system_error@std@@8   10030398     libcpmt:xonce.obj
 0002:0000d3a8       ??_R2system_error@std@@8   100303a8     libcpmt:xonce.obj
 0002:0000d3bc       ??_R1A@?0A@EA@system_error@std@@8 100303bc     libcpmt:xonce.obj
 0002:0000d3d8       ??_R3_Generic_error_category@std@@8 100303d8     libcpmt:xonce.obj
 0002:0000d3e8       ??_R2_Generic_error_category@std@@8 100303e8     libcpmt:xonce.obj
 0002:0000d3f4       ??_R1A@?0A@EA@_Generic_error_category@std@@8 100303f4     libcpmt:xonce.obj
 0002:0000d410       ??_R4ios_base@std@@6B@     10030410     libcpmt:cout.obj
 0002:0000d424       ??_R3ios_base@std@@8       10030424     libcpmt:cout.obj
 0002:0000d434       ??_R2ios_base@std@@8       10030434     libcpmt:cout.obj
 0002:0000d440       ??_R1A@?0A@EA@ios_base@std@@8 10030440     libcpmt:cout.obj
 0002:0000d45c       ??_R17?0A@EA@?$_Iosb@H@std@@8 1003045c     libcpmt:cout.obj
 0002:0000d478       ??_R3?$_Iosb@H@std@@8      10030478     libcpmt:cout.obj
 0002:0000d488       ??_R2?$_Iosb@H@std@@8      10030488     libcpmt:cout.obj
 0002:0000d490       ??_R1A@?0A@EA@?$_Iosb@H@std@@8 10030490     libcpmt:cout.obj
 0002:0000d4ac       ??_R4?$basic_ios@DU?$char_traits@D@std@@@std@@6B@ 100304ac     libcpmt:cout.obj
 0002:0000d4c0       ??_R3?$basic_ios@DU?$char_traits@D@std@@@std@@8 100304c0     libcpmt:cout.obj
 0002:0000d4d0       ??_R2?$basic_ios@DU?$char_traits@D@std@@@std@@8 100304d0     libcpmt:cout.obj
 0002:0000d4e0       ??_R1A@?0A@EA@?$basic_ios@DU?$char_traits@D@std@@@std@@8 100304e0     libcpmt:cout.obj
 0002:0000d4fc       ??_R4?$basic_streambuf@DU?$char_traits@D@std@@@std@@6B@ 100304fc     libcpmt:cout.obj
 0002:0000d510       ??_R3?$basic_streambuf@DU?$char_traits@D@std@@@std@@8 10030510     libcpmt:cout.obj
 0002:0000d520       ??_R2?$basic_streambuf@DU?$char_traits@D@std@@@std@@8 10030520     libcpmt:cout.obj
 0002:0000d528       ??_R1A@?0A@EA@?$basic_streambuf@DU?$char_traits@D@std@@@std@@8 10030528     libcpmt:cout.obj
 0002:0000d544       ??_R1A@A@3FA@?$basic_ios@DU?$char_traits@D@std@@@std@@8 10030544     libcpmt:cout.obj
 0002:0000d560       ??_R1A@A@3EA@ios_base@std@@8 10030560     libcpmt:cout.obj
 0002:0000d57c       ??_R17A@3EA@?$_Iosb@H@std@@8 1003057c     libcpmt:cout.obj
 0002:0000d598       ??_R4?$basic_ostream@DU?$char_traits@D@std@@@std@@6B@ 10030598     libcpmt:cout.obj
 0002:0000d5ac       ??_R3?$basic_ostream@DU?$char_traits@D@std@@@std@@8 100305ac     libcpmt:cout.obj
 0002:0000d5bc       ??_R2?$basic_ostream@DU?$char_traits@D@std@@@std@@8 100305bc     libcpmt:cout.obj
 0002:0000d5d0       ??_R1A@?0A@EA@?$basic_ostream@DU?$char_traits@D@std@@@std@@8 100305d0     libcpmt:cout.obj
 0002:0000d5ec       ??_R4?$basic_filebuf@DU?$char_traits@D@std@@@std@@6B@ 100305ec     libcpmt:cout.obj
 0002:0000d600       ??_R3?$basic_filebuf@DU?$char_traits@D@std@@@std@@8 10030600     libcpmt:cout.obj
 0002:0000d610       ??_R2?$basic_filebuf@DU?$char_traits@D@std@@@std@@8 10030610     libcpmt:cout.obj
 0002:0000d61c       ??_R1A@?0A@EA@?$basic_filebuf@DU?$char_traits@D@std@@@std@@8 1003061c     libcpmt:cout.obj
 0002:0000d638       ??_R4bad_cast@std@@6B@     10030638     libcpmt:cout.obj
 0002:0000d64c       ??_R3bad_cast@std@@8       1003064c     libcpmt:cout.obj
 0002:0000d65c       ??_R2bad_cast@std@@8       1003065c     libcpmt:cout.obj
 0002:0000d668       ??_R1A@?0A@EA@bad_cast@std@@8 10030668     libcpmt:cout.obj
 0002:0000d684       ??_R4_Facet_base@std@@6B@  10030684     libcpmt:cout.obj
 0002:0000d698       ??_R3_Facet_base@std@@8    10030698     libcpmt:cout.obj
 0002:0000d6a8       ??_R2_Facet_base@std@@8    100306a8     libcpmt:cout.obj
 0002:0000d6b0       ??_R1A@?0A@EA@_Facet_base@std@@8 100306b0     libcpmt:cout.obj
 0002:0000d6cc       ??_R1A@?0A@EA@facet@locale@std@@8 100306cc     libcpmt:cout.obj
 0002:0000d6e8       ??_R3facet@locale@std@@8   100306e8     libcpmt:cout.obj
 0002:0000d6f8       ??_R2facet@locale@std@@8   100306f8     libcpmt:cout.obj
 0002:0000d708       ??_R13?0A@EA@_Crt_new_delete@std@@8 10030708     libcpmt:cout.obj
 0002:0000d724       ??_R3_Crt_new_delete@std@@8 10030724     libcpmt:cout.obj
 0002:0000d734       ??_R2_Crt_new_delete@std@@8 10030734     libcpmt:cout.obj
 0002:0000d73c       ??_R1A@?0A@EA@_Crt_new_delete@std@@8 1003073c     libcpmt:cout.obj
 0002:0000d758       ??_R3codecvt_base@std@@8   10030758     libcpmt:cout.obj
 0002:0000d768       ??_R2codecvt_base@std@@8   10030768     libcpmt:cout.obj
 0002:0000d77c       ??_R1A@?0A@EA@codecvt_base@std@@8 1003077c     libcpmt:cout.obj
 0002:0000d798       ??_R3ctype_base@std@@8     10030798     libcpmt:cout.obj
 0002:0000d7a8       ??_R2ctype_base@std@@8     100307a8     libcpmt:cout.obj
 0002:0000d7bc       ??_R1A@?0A@EA@ctype_base@std@@8 100307bc     libcpmt:cout.obj
 0002:0000d7d8       ??_R4?$ctype@D@std@@6B@    100307d8     libcpmt:cout.obj
 0002:0000d7ec       ??_R3?$ctype@D@std@@8      100307ec     libcpmt:cout.obj
 0002:0000d7fc       ??_R2?$ctype@D@std@@8      100307fc     libcpmt:cout.obj
 0002:0000d814       ??_R1A@?0A@EA@?$ctype@D@std@@8 10030814     libcpmt:cout.obj
 0002:0000d830       ??_R4_Iostream_error_category@std@@6B@ 10030830     libcpmt:cout.obj
 0002:0000d844       ??_R3_Iostream_error_category@std@@8 10030844     libcpmt:cout.obj
 0002:0000d854       ??_R2_Iostream_error_category@std@@8 10030854     libcpmt:cout.obj
 0002:0000d864       ??_R1A@?0A@EA@_Iostream_error_category@std@@8 10030864     libcpmt:cout.obj
 0002:0000d880       ??_R4failure@ios_base@std@@6B@ 10030880     libcpmt:cout.obj
 0002:0000d894       ??_R3failure@ios_base@std@@8 10030894     libcpmt:cout.obj
 0002:0000d8a4       ??_R2failure@ios_base@std@@8 100308a4     libcpmt:cout.obj
 0002:0000d8bc       ??_R1A@?0A@EA@failure@ios_base@std@@8 100308bc     libcpmt:cout.obj
 0002:0000d8d8       ??_R4?$codecvt@DDU_Mbstatet@@@std@@6B@ 100308d8     libcpmt:cout.obj
 0002:0000d8ec       ??_R3?$codecvt@DDU_Mbstatet@@@std@@8 100308ec     libcpmt:cout.obj
 0002:0000d8fc       ??_R2?$codecvt@DDU_Mbstatet@@@std@@8 100308fc     libcpmt:cout.obj
 0002:0000d914       ??_R1A@?0A@EA@?$codecvt@DDU_Mbstatet@@@std@@8 10030914     libcpmt:cout.obj
 0002:0000d930       ??_R4_Locimp@locale@std@@6B@ 10030930     libcpmt:locale0.obj
 0002:0000d944       ??_R3_Locimp@locale@std@@8 10030944     libcpmt:locale0.obj
 0002:0000d954       ??_R2_Locimp@locale@std@@8 10030954     libcpmt:locale0.obj
 0002:0000d968       ??_R1A@?0A@EA@_Locimp@locale@std@@8 10030968     libcpmt:locale0.obj
 0002:0000d984       ??_R4bad_alloc@std@@6B@    10030984     libcpmt:xthrow.obj
 0002:0000d998       ??_R3bad_alloc@std@@8      10030998     libcpmt:xthrow.obj
 0002:0000d9a8       ??_R2bad_alloc@std@@8      100309a8     libcpmt:xthrow.obj
 0002:0000d9b4       ??_R1A@?0A@EA@bad_alloc@std@@8 100309b4     libcpmt:xthrow.obj
 0002:0000d9d0       ??_R4logic_error@std@@6B@  100309d0     libcpmt:xthrow.obj
 0002:0000d9e4       ??_R3logic_error@std@@8    100309e4     libcpmt:xthrow.obj
 0002:0000d9f4       ??_R2logic_error@std@@8    100309f4     libcpmt:xthrow.obj
 0002:0000da00       ??_R1A@?0A@EA@logic_error@std@@8 10030a00     libcpmt:xthrow.obj
 0002:0000da1c       ??_R4length_error@std@@6B@ 10030a1c     libcpmt:xthrow.obj
 0002:0000da30       ??_R3length_error@std@@8   10030a30     libcpmt:xthrow.obj
 0002:0000da40       ??_R2length_error@std@@8   10030a40     libcpmt:xthrow.obj
 0002:0000da50       ??_R1A@?0A@EA@length_error@std@@8 10030a50     libcpmt:xthrow.obj
 0002:0000da6c       ??_R4out_of_range@std@@6B@ 10030a6c     libcpmt:xthrow.obj
 0002:0000da80       ??_R3out_of_range@std@@8   10030a80     libcpmt:xthrow.obj
 0002:0000da90       ??_R2out_of_range@std@@8   10030a90     libcpmt:xthrow.obj
 0002:0000daa0       ??_R1A@?0A@EA@out_of_range@std@@8 10030aa0     libcpmt:xthrow.obj
 0002:0000dabc       ??_R4type_info@@6B@        10030abc     LIBCMT:std_type_info_static.obj
 0002:0000dad0       ??_R3type_info@@8          10030ad0     LIBCMT:std_type_info_static.obj
 0002:0000dae0       ??_R2type_info@@8          10030ae0     LIBCMT:std_type_info_static.obj
 0002:0000dae8       ??_R1A@?0A@EA@type_info@@8 10030ae8     LIBCMT:std_type_info_static.obj
 0002:0000db04       ??_R4bad_array_new_length@std@@6B@ 10030b04     LIBCMT:throw_bad_alloc.obj
 0002:0000db18       ??_R3bad_array_new_length@std@@8 10030b18     LIBCMT:throw_bad_alloc.obj
 0002:0000db28       ??_R2bad_array_new_length@std@@8 10030b28     LIBCMT:throw_bad_alloc.obj
 0002:0000db38       ??_R1A@?0A@EA@bad_array_new_length@std@@8 10030b38     LIBCMT:throw_bad_alloc.obj
 0002:0000db54       ??_R4bad_exception@std@@6B@ 10030b54     libvcruntime:frame.obj
 0002:0000db68       ??_R3bad_exception@std@@8  10030b68     libvcruntime:frame.obj
 0002:0000db78       ??_R2bad_exception@std@@8  10030b78     libvcruntime:frame.obj
 0002:0000db84       ??_R1A@?0A@EA@bad_exception@std@@8 10030b84     libvcruntime:frame.obj
 0002:0000dba0       ___safe_se_handler_table   10030ba0     <linker-defined>
 0002:0000dfd4       ___rtc_iaa                 10030fd4     LIBCMT:_initsect_.obj
 0002:0000dfd8       ___rtc_izz                 10030fd8     LIBCMT:_initsect_.obj
 0002:0000dfdc       ___rtc_taa                 10030fdc     LIBCMT:_initsect_.obj
 0002:0000dfe0       ___rtc_tzz                 10030fe0     LIBCMT:_initsect_.obj
 0002:0000dfe8       __CT??_R0?AVexception@std@@@8??0exception@std@@QAE@ABV01@@Z12 10030fe8     libcpmt:xonce.obj
 0002:0000e164       __TI2?AVbad_cast@std@@     10031164     libcpmt:cout.obj
 0002:0000e174       __CTA2?AVbad_cast@std@@    10031174     libcpmt:cout.obj
 0002:0000e180       __CT??_R0?AVbad_cast@std@@@8??0bad_cast@std@@QAE@ABV01@@Z12 10031180     libcpmt:cout.obj
 0002:0000e1f4       __TI2?AVbad_alloc@std@@    100311f4     libcpmt:xthrow.obj
 0002:0000e204       __CTA2?AVbad_alloc@std@@   10031204     libcpmt:xthrow.obj
 0002:0000e210       __CT??_R0?AVbad_alloc@std@@@8??0bad_alloc@std@@QAE@ABV01@@Z12 10031210     libcpmt:xthrow.obj
 0002:0000e22c       __CT??_R0?AVlogic_error@std@@@8??0logic_error@std@@QAE@ABV01@@Z12 1003122c     libcpmt:xthrow.obj
 0002:0000e248       __TI3?AVlength_error@std@@ 10031248     libcpmt:xthrow.obj
 0002:0000e258       __CTA3?AVlength_error@std@@ 10031258     libcpmt:xthrow.obj
 0002:0000e268       __CT??_R0?AVlength_error@std@@@8??0length_error@std@@QAE@ABV01@@Z12 10031268     libcpmt:xthrow.obj
 0002:0000e284       __TI3?AVout_of_range@std@@ 10031284     libcpmt:xthrow.obj
 0002:0000e294       __CTA3?AVout_of_range@std@@ 10031294     libcpmt:xthrow.obj
 0002:0000e2a4       __CT??_R0?AVout_of_range@std@@@8??0out_of_range@std@@QAE@ABV01@@Z12 100312a4     libcpmt:xthrow.obj
 0002:0000e33c       __TI3?AVbad_array_new_length@std@@ 1003133c     LIBCMT:throw_bad_alloc.obj
 0002:0000e34c       __CTA3?AVbad_array_new_length@std@@ 1003134c     LIBCMT:throw_bad_alloc.obj
 0002:0000e35c       __CT??_R0?AVbad_array_new_length@std@@@8??0bad_array_new_length@std@@QAE@ABV01@@Z12 1003135c     LIBCMT:throw_bad_alloc.obj
 0002:0000e47c       __TI2?AVbad_exception@std@@ 1003147c     libvcruntime:frame.obj
 0002:0000e48c       __CTA2?AVbad_exception@std@@ 1003148c     libvcruntime:frame.obj
 0002:0000e498       __CT??_R0?AVbad_exception@std@@@8??0bad_exception@std@@QAE@ABV01@@Z12 10031498     libvcruntime:frame.obj
 0002:0000e9fc       __DELAY_IMPORT_DESCRIPTOR_node_exe 100319fc     node:node.exe
 0002:0000ea1c       __NULL_DELAY_IMPORT_DESCRIPTOR 10031a1c     node:node.exe
 0002:0000eab8       \177node_NULL_THUNK_DATA_DLN 10031ab8     node:node.exe
 0002:0000edb0       \177node_NULL_THUNK_DATA_DLB 10031db0     node:node.exe
 0002:0000ee88       __IMPORT_DESCRIPTOR_KERNEL32 10031e88     kernel32:KERNEL32.dll
 0002:0000ee9c       __IMPORT_DESCRIPTOR_NtDirect 10031e9c     NtDirect:NtDirect.dll
 0002:0000eeb0       __NULL_IMPORT_DESCRIPTOR   10031eb0     kernel32:KERNEL32.dll
 0003:00000004       ?_Sync@ios_base@std@@0_NA  10033004     libcpmt:ios.obj
 0003:00000008       ?_PJP_CPP_Copyright@@3PADA 10033008     libcpmt:iosptrs.obj
 0003:00000060       ___scrt_native_dllmain_reason 10033060     LIBCMT:utility.obj
 0003:00000064       ___security_cookie_complement 10033064     LIBCMT:gs_cookie.obj
 0003:00000068       ___security_cookie         10033068     LIBCMT:gs_cookie.obj
 0003:0000006c       __fltused                  1003306c     LIBCMT:fltused.obj
 0003:00000070       ___isa_enabled             10033070     LIBCMT:_cpu_disp_.obj
 0003:00000090       __NLG_Destination          10033090     libvcruntime:_exsup_.obj
 0003:000000a0       ___abort_behavior          100330a0     libucrt:abort.obj
 0003:000000b0       ___acrt_lconv_c            100330b0     libucrt:localeconv.obj
 0003:00000100       ___acrt_lconv              10033100     libucrt:localeconv.obj
 0003:00000104       ___acrt_lconv_static_decimal 10033104     libucrt:localeconv.obj
 0003:00000108       ___acrt_lconv_static_W_decimal 10033108     libucrt:localeconv.obj
 0003:00000110       __iob                      10033110     libucrt:_file.obj
 0003:000001b8       __pctype                   100331b8     libucrt:ctype.obj
 0003:000001bc       __pwctype                  100331bc     libucrt:ctype.obj
 0003:000001d8       ___acrt_initial_locale_data 100331d8     libucrt:nlsdata.obj
 0003:00000290       ___acrt_initial_locale_pointers 10033290     libucrt:nlsdata.obj
 0003:00000298       ___acrt_wide_c_locale_string 10033298     libucrt:nlsdata.obj
 0003:0000029c       ___mb_cur_max              1003329c     libucrt:nlsdata.obj
 0003:000002a0       ___badioinfo               100332a0     libucrt:ioinit.obj
 0003:000002d0       __lookuptrailbytes         100332d0     libucrt:read.obj
 0003:000003d0       ___globallocalestatus      100333d0     libucrt:glstatus.obj
 0003:00000468       ___acrt_initial_multibyte_data 10033468     libucrt:mbctype.obj
 0003:000009a0       ?PortConfig@@3HA           100339a0     api.obj
 0003:000009a4       ?InstrumentConfig@@3PADA   100339a4     api.obj
 0003:000009a8       ?HostConfig@@3PADA         100339a8     api.obj
 0003:000009ac       ?AccountConfig@@3PADA      100339ac     api.obj
 0003:000009d8       ??_R0?AVsystem_error@std@@@8 100339d8     libcpmt:xonce.obj
 0003:000009f8       ??_R0?AV_System_error@std@@@8 100339f8     libcpmt:xonce.obj
 0003:00000a18       ??_R0?AVruntime_error@std@@@8 10033a18     libcpmt:xonce.obj
 0003:00000a38       ??_R0?AVexception@std@@@8  10033a38     libcpmt:xonce.obj
 0003:00000a54       ??_R0?AVerror_category@std@@@8 10033a54     libcpmt:xonce.obj
 0003:00000a78       ??_R0?AV_Generic_error_category@std@@@8 10033a78     libcpmt:xonce.obj
 0003:00000aa4       ??_R0?AVfailure@ios_base@std@@@8 10033aa4     libcpmt:cout.obj
 0003:00000ac8       ??_R0?AVbad_cast@std@@@8   10033ac8     libcpmt:cout.obj
 0003:00000ae4       ??_R0?AVios_base@std@@@8   10033ae4     libcpmt:cout.obj
 0003:00000b00       ??_R0?AV?$_Iosb@H@std@@@8  10033b00     libcpmt:cout.obj
 0003:00000b1c       ??_R0?AV?$basic_ios@DU?$char_traits@D@std@@@std@@@8 10033b1c     libcpmt:cout.obj
 0003:00000b54       ??_R0?AV?$basic_streambuf@DU?$char_traits@D@std@@@std@@@8 10033b54     libcpmt:cout.obj
 0003:00000b90       ??_R0?AV?$basic_ostream@DU?$char_traits@D@std@@@std@@@8 10033b90     libcpmt:cout.obj
 0003:00000bcc       ??_R0?AV?$basic_filebuf@DU?$char_traits@D@std@@@std@@@8 10033bcc     libcpmt:cout.obj
 0003:00000c08       ??_R0?AV_Facet_base@std@@@8 10033c08     libcpmt:cout.obj
 0003:00000c28       ??_R0?AVfacet@locale@std@@@8 10033c28     libcpmt:cout.obj
 0003:00000c48       ??_R0?AU_Crt_new_delete@std@@@8 10033c48     libcpmt:cout.obj
 0003:00000c6c       ??_R0?AVcodecvt_base@std@@@8 10033c6c     libcpmt:cout.obj
 0003:00000c8c       ??_R0?AUctype_base@std@@@8 10033c8c     libcpmt:cout.obj
 0003:00000cac       ??_R0?AV?$ctype@D@std@@@8  10033cac     libcpmt:cout.obj
 0003:00000cc8       ??_R0?AV_Iostream_error_category@std@@@8 10033cc8     libcpmt:cout.obj
 0003:00000cf4       ??_R0?AV?$codecvt@DDU_Mbstatet@@@std@@@8 10033cf4     libcpmt:cout.obj
 0003:00000d20       ??_R0?AV_Locimp@locale@std@@@8 10033d20     libcpmt:locale0.obj
 0003:00000d44       ??_R0?AVbad_alloc@std@@@8  10033d44     libcpmt:xthrow.obj
 0003:00000d60       ??_R0?AVlogic_error@std@@@8 10033d60     libcpmt:xthrow.obj
 0003:00000d80       ??_R0?AVlength_error@std@@@8 10033d80     libcpmt:xthrow.obj
 0003:00000da0       ??_R0?AVout_of_range@std@@@8 10033da0     libcpmt:xthrow.obj
 0003:00000dc0       ??_R0?AVtype_info@@@8      10033dc0     LIBCMT:std_type_info_static.obj
 0003:00000dd8       ??_R0?AVbad_array_new_length@std@@@8 10033dd8     LIBCMT:throw_bad_alloc.obj
 0003:00000e00       ??_R0?AVbad_exception@std@@@8 10033e00     libvcruntime:frame.obj
 0003:00000e20       __imp__napi_module_register 10033e20     node:node.exe
 0003:00000e24       __imp__napi_create_double  10033e24     node:node.exe
 0003:00000e28       __imp__napi_create_function 10033e28     node:node.exe
 0003:00000e2c       __imp__napi_open_handle_scope 10033e2c     node:node.exe
 0003:00000e30       __imp__napi_coerce_to_number 10033e30     node:node.exe
 0003:00000e34       __imp__napi_get_last_error_info 10033e34     node:node.exe
 0003:00000e38       __imp__napi_create_error   10033e38     node:node.exe
 0003:00000e3c       __imp__napi_coerce_to_object 10033e3c     node:node.exe
 0003:00000e40       __imp__napi_delete_reference 10033e40     node:node.exe
 0003:00000e44       __imp__napi_fatal_error    10033e44     node:node.exe
 0003:00000e48       __imp__napi_is_exception_pending 10033e48     node:node.exe
 0003:00000e4c       __imp__napi_create_symbol  10033e4c     node:node.exe
 0003:00000e50       __imp__napi_get_value_string_utf8 10033e50     node:node.exe
 0003:00000e54       __imp__napi_coerce_to_string 10033e54     node:node.exe
 0003:00000e58       __imp__napi_create_type_error 10033e58     node:node.exe
 0003:00000e5c       __imp__napi_create_external 10033e5c     node:node.exe
 0003:00000e60       __imp__napi_create_string_utf8 10033e60     node:node.exe
 0003:00000e64       __imp__napi_set_named_property 10033e64     node:node.exe
 0003:00000e68       __imp__napi_has_named_property 10033e68     node:node.exe
 0003:00000e6c       __imp__napi_get_named_property 10033e6c     node:node.exe
 0003:00000e70       __imp__napi_define_properties 10033e70     node:node.exe
 0003:00000e74       __imp__napi_typeof         10033e74     node:node.exe
 0003:00000e78       __imp__napi_throw          10033e78     node:node.exe
 0003:00000e7c       __imp__napi_get_value_int32 10033e7c     node:node.exe
 0003:00000e80       __imp__napi_get_and_clear_last_exception 10033e80     node:node.exe
 0003:00000e84       __imp__napi_get_undefined  10033e84     node:node.exe
 0003:00000e88       __imp__napi_get_cb_info    10033e88     node:node.exe
 0003:00000e8c       __imp__napi_get_value_double 10033e8c     node:node.exe
 0003:00000e90       __imp__napi_create_reference 10033e90     node:node.exe
 0003:00000e94       __imp__napi_close_handle_scope 10033e94     node:node.exe
 0003:00000e98       __imp__napi_get_reference_value 10033e98     node:node.exe
 0003:00000e9c       \177node_NULL_THUNK_DATA_DLA 10033e9c     node:node.exe
 0003:00000ea0       __hmod__node_exe           10033ea0     node:node.exe
 0003:00000f78       ?cout@std@@3V?$basic_ostream@DU?$char_traits@D@std@@@1@A 10033f78     libcpmt:cout.obj
 0003:00001020       ?id@?$codecvt@DDU_Mbstatet@@@std@@2V0locale@2@A 10034020     libcpmt:cout.obj
 0003:00001024       ?_Stinit@?1??_Init@?$basic_filebuf@DU?$char_traits@D@std@@@std@@IAEXPAU_iobuf@@W4_Initfl@23@@Z@4U_Mbstatet@@A 10034024     libcpmt:cout.obj
 0003:0000102c       ?_Psave@?$_Facetptr@V?$codecvt@DDU_Mbstatet@@@std@@@std@@2PBVfacet@locale@2@B 1003402c     libcpmt:cout.obj
 0003:00001030       ?_Id_cnt@id@locale@std@@0HA 10034030     libcpmt:locale0.obj
 0003:00001034       ?_Clocptr@_Locimp@locale@std@@0PAV123@A 10034034     libcpmt:locale0.obj
 0003:00001038       ?id@?$ctype@G@std@@2V0locale@2@A 10034038     libcpmt:locale0.obj
 0003:0000103c       ?id@?$codecvt@_WDU_Mbstatet@@@std@@2V0locale@2@A 1003403c     libcpmt:locale0.obj
 0003:00001040       ?id@?$codecvt@GDU_Mbstatet@@@std@@2V0locale@2@A 10034040     libcpmt:locale0.obj
 0003:00001044       ?id@?$ctype@_W@std@@2V0locale@2@A 10034044     libcpmt:locale0.obj
 0003:00001048       ?id@?$ctype@D@std@@2V0locale@2@A 10034048     libcpmt:locale0.obj
 0003:00001064       ?_Raise_handler@std@@3P6AXABVexception@stdext@@@ZA 10034064     libcpmt:raisehan.obj
 0003:00001068       ___encodedKERNEL32Functions 10034068     libcpmt:winapisupp.obj
 0003:00001108       ?_Index@ios_base@std@@0HA  10034108     libcpmt:ios.obj
 0003:00001140       ?_Ptr_cin@std@@3PAV?$basic_istream@DU?$char_traits@D@std@@@1@A 10034140     libcpmt:iosptrs.obj
 0003:00001144       ?_Ptr_cout@std@@3PAV?$basic_ostream@DU?$char_traits@D@std@@@1@A 10034144     libcpmt:iosptrs.obj
 0003:00001148       ?_Ptr_cerr@std@@3PAV?$basic_ostream@DU?$char_traits@D@std@@@1@A 10034148     libcpmt:iosptrs.obj
 0003:0000114c       ?_Ptr_clog@std@@3PAV?$basic_ostream@DU?$char_traits@D@std@@@1@A 1003414c     libcpmt:iosptrs.obj
 0003:00001150       ?_Ptr_wcin@std@@3PAV?$basic_istream@_WU?$char_traits@_W@std@@@1@A 10034150     libcpmt:iosptrs.obj
 0003:00001154       ?_Ptr_wcout@std@@3PAV?$basic_ostream@_WU?$char_traits@_W@std@@@1@A 10034154     libcpmt:iosptrs.obj
 0003:00001158       ?_Ptr_wcerr@std@@3PAV?$basic_ostream@_WU?$char_traits@_W@std@@@1@A 10034158     libcpmt:iosptrs.obj
 0003:0000115c       ?_Ptr_wclog@std@@3PAV?$basic_ostream@_WU?$char_traits@_W@std@@@1@A 1003415c     libcpmt:iosptrs.obj
 0003:0000118c       ?id@?$num_get@DV?$istreambuf_iterator@DU?$char_traits@D@std@@@std@@@std@@2V0locale@2@A 1003418c     libcpmt:locale.obj
 0003:00001190       ?id@?$time_put@_WV?$ostreambuf_iterator@_WU?$char_traits@_W@std@@@std@@@std@@2V0locale@2@A 10034190     libcpmt:wlocale.obj
 0003:00001194       ?id@?$num_get@_WV?$istreambuf_iterator@_WU?$char_traits@_W@std@@@std@@@std@@2V0locale@2@A 10034194     libcpmt:wlocale.obj
 0003:00001198       ?id@?$num_put@_WV?$ostreambuf_iterator@_WU?$char_traits@_W@std@@@std@@@std@@2V0locale@2@A 10034198     libcpmt:wlocale.obj
 0003:0000119c       ?id@?$numpunct@_W@std@@2V0locale@2@A 1003419c     libcpmt:wlocale.obj
 0003:000011a0       ?id@?$collate@_W@std@@2V0locale@2@A 100341a0     libcpmt:wlocale.obj
 0003:000011a4       ?id@?$messages@_W@std@@2V0locale@2@A 100341a4     libcpmt:wlocale.obj
 0003:000011a8       ?id@?$money_get@_WV?$istreambuf_iterator@_WU?$char_traits@_W@std@@@std@@@std@@2V0locale@2@A 100341a8     libcpmt:wlocale.obj
 0003:000011ac       ?id@?$money_put@_WV?$ostreambuf_iterator@_WU?$char_traits@_W@std@@@std@@@std@@2V0locale@2@A 100341ac     libcpmt:wlocale.obj
 0003:000011b0       ?id@?$moneypunct@_W$0A@@std@@2V0locale@2@A 100341b0     libcpmt:wlocale.obj
 0003:000011b4       ?id@?$moneypunct@_W$00@std@@2V0locale@2@A 100341b4     libcpmt:wlocale.obj
 0003:000011b8       ?id@?$time_get@_WV?$istreambuf_iterator@_WU?$char_traits@_W@std@@@std@@@std@@2V0locale@2@A 100341b8     libcpmt:wlocale.obj
 0003:000011bc       ?id@?$num_get@GV?$istreambuf_iterator@GU?$char_traits@G@std@@@std@@@std@@2V0locale@2@A 100341bc     libcpmt:wlocale.obj
 0003:000011c0       ?id@?$num_put@GV?$ostreambuf_iterator@GU?$char_traits@G@std@@@std@@@std@@2V0locale@2@A 100341c0     libcpmt:wlocale.obj
 0003:000011c4       ?id@?$numpunct@G@std@@2V0locale@2@A 100341c4     libcpmt:wlocale.obj
 0003:000011c8       ?id@?$collate@G@std@@2V0locale@2@A 100341c8     libcpmt:wlocale.obj
 0003:000011cc       ?id@?$messages@G@std@@2V0locale@2@A 100341cc     libcpmt:wlocale.obj
 0003:000011d0       ?id@?$money_get@GV?$istreambuf_iterator@GU?$char_traits@G@std@@@std@@@std@@2V0locale@2@A 100341d0     libcpmt:wlocale.obj
 0003:000011d4       ?id@?$money_put@GV?$ostreambuf_iterator@GU?$char_traits@G@std@@@std@@@std@@2V0locale@2@A 100341d4     libcpmt:wlocale.obj
 0003:000011d8       ?id@?$moneypunct@G$0A@@std@@2V0locale@2@A 100341d8     libcpmt:wlocale.obj
 0003:000011dc       ?id@?$moneypunct@G$00@std@@2V0locale@2@A 100341dc     libcpmt:wlocale.obj
 0003:000011e0       ?id@?$time_get@GV?$istreambuf_iterator@GU?$char_traits@G@std@@@std@@@std@@2V0locale@2@A 100341e0     libcpmt:wlocale.obj
 0003:000011e4       ?id@?$time_put@GV?$ostreambuf_iterator@GU?$char_traits@G@std@@@std@@@std@@2V0locale@2@A 100341e4     libcpmt:wlocale.obj
 0003:000011e8       ?id@?$collate@D@std@@2V0locale@2@A 100341e8     libcpmt:xlocale.obj
 0003:000011ec       ?id@?$messages@D@std@@2V0locale@2@A 100341ec     libcpmt:xlocale.obj
 0003:000011f0       ?id@?$money_get@DV?$istreambuf_iterator@DU?$char_traits@D@std@@@std@@@std@@2V0locale@2@A 100341f0     libcpmt:xlocale.obj
 0003:000011f4       ?id@?$money_put@DV?$ostreambuf_iterator@DU?$char_traits@D@std@@@std@@@std@@2V0locale@2@A 100341f4     libcpmt:xlocale.obj
 0003:000011f8       ?id@?$moneypunct@D$0A@@std@@2V0locale@2@A 100341f8     libcpmt:xlocale.obj
 0003:000011fc       ?id@?$moneypunct@D$00@std@@2V0locale@2@A 100341fc     libcpmt:xlocale.obj
 0003:00001200       ?id@?$time_get@DV?$istreambuf_iterator@DU?$char_traits@D@std@@@std@@@std@@2V0locale@2@A 10034200     libcpmt:xlocale.obj
 0003:00001204       ?id@?$time_put@DV?$ostreambuf_iterator@DU?$char_traits@D@std@@@std@@@std@@2V0locale@2@A 10034204     libcpmt:xlocale.obj
 0003:0000120c       ___scrt_current_native_startup_state 1003420c     LIBCMT:utility.obj
 0003:00001210       ___scrt_native_startup_lock 10034210     LIBCMT:utility.obj
 0003:00001550       ?__type_info_root_node@@3U__type_info_node@@A 10034550     LIBCMT:tncleanup.obj
 0003:00001558       ?_OptionsStorage@?1??__local_stdio_scanf_options@@9@4_KA 10034558     LIBCMT:default_local_stdio_options.obj
 0003:00001560       ___scrt_debugger_hook_flag 10034560     LIBCMT:utility_desktop.obj
 0003:00001564       ___isa_available           10034564     LIBCMT:_cpu_disp_.obj
 0003:00001568       ___favor                   10034568     LIBCMT:_cpu_disp_.obj
 0003:0000156c       ?__WinRTOutOfMemoryExceptionCallback@@3P6GPAXXZA 1003456c     libvcruntime:ehhelpers.obj
 0003:00001570       ___pPurecall               10034570     libvcruntime:purevirt_data.obj
 0003:000015d8       ?pArgList@UnDecorator@@0PAVReplicator@@A 100345d8     libvcruntime:undname.obj
 0003:000015dc       ?pZNameList@UnDecorator@@0PAVReplicator@@A 100345dc     libvcruntime:undname.obj
 0003:000015e0       ?pTemplateArgList@UnDecorator@@0PAVReplicator@@A 100345e0     libvcruntime:undname.obj
 0003:000015e4       ?gName@UnDecorator@@0PBDB  100345e4     libvcruntime:undname.obj
 0003:000015e8       ?name@UnDecorator@@0PBDB   100345e8     libvcruntime:undname.obj
 0003:000015ec       ?disableFlags@UnDecorator@@0KA 100345ec     libvcruntime:undname.obj
 0003:000015f0       ?fExplicitTemplateParams@UnDecorator@@0_NA 100345f0     libvcruntime:undname.obj
 0003:000015f1       ?fGetTemplateArgumentList@UnDecorator@@0_NA 100345f1     libvcruntime:undname.obj
 0003:000015f4       ?m_pGetParameter@UnDecorator@@0P6APADJ@ZA 100345f4     libvcruntime:undname.obj
 0003:000015f8       ?m_CHPENameOffset@UnDecorator@@0KA 100345f8     libvcruntime:undname.obj
 0003:000015fc       ?m_recursionLevel@UnDecorator@@0KA 100345fc     libvcruntime:undname.obj
 0003:00001618       ___acrt_lconv_static_null  10034618     libucrt:localeconv.obj
 0003:0000161c       ___acrt_lconv_static_W_null 1003461c     libucrt:localeconv.obj
 0003:00001774       __nstream                  10034774     libucrt:_file.obj
 0003:00001778       ___piob                    10034778     libucrt:_file.obj
 0003:0000177c       __cflush                   1003477c     libucrt:_file.obj
 0003:0000178c       ?c_exit_complete@?1???R<lambda_6e4b09c48022b2350581041d5f6b0c4c>@@QBE@XZ@4_NA 1003478c     libucrt:exit.obj
 0003:00001898       __environ_table            10034898     libucrt:environment_initialization.obj
 0003:0000189c       __wenviron_table           1003489c     libucrt:environment_initialization.obj
 0003:000018a0       ___dcrt_initial_wide_environment 100348a0     libucrt:environment_initialization.obj
 0003:000018a4       ___dcrt_initial_narrow_environment 100348a4     libucrt:environment_initialization.obj
 0003:000018a8       ___acrt_atexit_table       100348a8     libucrt:onexit.obj
 0003:000018b4       ___acrt_at_quick_exit_table 100348b4     libucrt:onexit.obj
 0003:000018d8       ___acrt_stdout_buffer      100348d8     libucrt:_sftbuf.obj
 0003:000018dc       ___acrt_stderr_buffer      100348dc     libucrt:_sftbuf.obj
 0003:000018e0       ___acrt_locale_changed_data 100348e0     libucrt:wsetlocale.obj
 0003:000018e4       ___acrt_current_locale_data 100348e4     libucrt:nlsdata.obj
 0003:000018e8       ___pioinfo                 100348e8     libucrt:ioinit.obj
 0003:00001ae8       __nhandle                  10034ae8     libucrt:ioinit.obj
 0003:00001bcc       ___fastflag                10034bcc     libucrt:fp_flags.obj
 0003:00001bd0       ?_timezone@@3V?$dual_state_global@J@__crt_state_management@@A 10034bd0     libucrt:timeset.obj
 0003:00001bd4       ?_daylight@@3V?$dual_state_global@H@__crt_state_management@@A 10034bd4     libucrt:timeset.obj
 0003:00001bd8       ?_dstbias@@3V?$dual_state_global@J@__crt_state_management@@A 10034bd8     libucrt:timeset.obj
 0003:00001c94       ___acrt_current_multibyte_data 10034c94     libucrt:mbctype.obj
 0003:00001c98       __mbctype                  10034c98     libucrt:mbctype.obj
 0003:00001c9c       __mbcasemap                10034c9c     libucrt:mbctype.obj
 0003:00001ca8       ___argc                    10034ca8     libucrt:argv_data.obj
 0003:00001cac       ___argv                    10034cac     libucrt:argv_data.obj
 0003:00001cb0       ___wargv                   10034cb0     libucrt:argv_data.obj
 0003:00001cb4       __acmdln                   10034cb4     libucrt:argv_data.obj
 0003:00001cb8       __wcmdln                   10034cb8     libucrt:argv_data.obj
 0003:00001cbc       __pgmptr                   10034cbc     libucrt:argv_data.obj
 0003:00001cc0       ___acrt_heap               10034cc0     libucrt:heap_handle.obj
 0003:00001ce4       ?DloadKernel32@@3PAUHINSTANCE__@@A 10034ce4     DelayImp:delayhlp.obj
 0003:00001ce8       ?DloadAcquireSRWLockExclusive@@3P6GXPAK@ZA 10034ce8     DelayImp:delayhlp.obj
 0003:00001cec       ?DloadReleaseSRWLockExclusive@@3P6GXPAK@ZA 10034cec     DelayImp:delayhlp.obj
 0003:00001cf0       ?DloadSrwLock@@3KA         10034cf0     DelayImp:delayhlp.obj
 0003:00001cf4       ?DloadSectionLockCount@@3KA 10034cf4     DelayImp:delayhlp.obj
 0003:00001cf8       ?DloadSectionOldProtection@@3KA 10034cf8     DelayImp:delayhlp.obj
 0003:00001cfc       ?DloadSectionCommitPermanent@@3KA 10034cfc     DelayImp:delayhlp.obj
 0003:00001d00       ?_Flag@?1???$_Immortalize@V_Iostream_error_category@std@@@std@@YAAAV_Iostream_error_category@1@XZ@4PAXA 10034d00     api.obj
 0003:00001d04       ?_Psave@?$_Facetptr@V?$ctype@D@std@@@std@@2PBVfacet@locale@2@B 10034d04     api.obj
 0003:00001d08       ?id@?$num_put@DV?$ostreambuf_iterator@DU?$char_traits@D@std@@@std@@@std@@2V0locale@2@A 10034d08     api.obj
 0003:00001d0c       ?_Storage@?1???$_Immortalize@V_Iostream_error_category@std@@@std@@YAAAV_Iostream_error_category@1@XZ@4T?$_Align_type@H$07@1@A 10034d0c     api.obj
 0003:00001d18       ?_OptionsStorage@?1??__local_stdio_printf_options@@9@4_KA 10034d18     api.obj
 0003:00001d20       ?id@?$numpunct@D@std@@2V0locale@2@A 10034d20     api.obj
 0003:00001d24       ___scrt_ucrt_dll_is_in_use 10034d24     <common>
 0003:00001d28       ___dyn_tls_init_callback   10034d28     <common>
 0003:00001d2c       __pmatherr                 10034d2c     <common>
 0003:00001d30       ___use_sse2_mathfcns       10034d30     <common>

 entry point at        0001:0000b5d8

 Static symbols

 0000:fffc7000       .debug$S                   10000000     kernel32:KERNEL32.dll
 0000:fffc7000       .debug$S                   10000000     NtDirect:NtDirect.dll
 0000:fffc7000       .debug$S                   10000000     NtDirect:NtDirect.dll
 0000:fffc7000       .debug$S                   10000000     NtDirect:NtDirect.dll
 0000:fffc7000       .debug$S                   10000000     NtDirect:NtDirect.dll
 0000:fffc7000       .debug$S                   10000000     node:node.exe
 0000:fffc7000       .debug$S                   10000000     NtDirect:NtDirect.dll
 0000:fffc7000       .debug$S                   10000000     node:node.exe
 0000:fffc7000       .debug$S                   10000000     node:node.exe
 0000:fffc7000       .debug$S                   10000000     node:node.exe
 0000:fffc7000       .debug$S                   10000000     node:node.exe
 0000:fffc7000       .debug$S                   10000000     node:node.exe
 0000:fffc7000       .debug$S                   10000000     NTDirect32.exp
 0000:fffc7000       .debug$S                   10000000     node:node.exe
 0000:fffc7000       .debug$S                   10000000     kernel32:KERNEL32.dll
 0000:fffc7000       .debug$S                   10000000     kernel32:KERNEL32.dll
 0000:fffc7000       .debug$S                   10000000     kernel32:KERNEL32.dll
 0000:fffc7000       .debug$S                   10000000     kernel32:KERNEL32.dll
 0000:fffc7000       .debug$S                   10000000     node:node.exe
 0000:fffc7000       .debug$S                   10000000     node:node.exe
 0000:fffc7000       .debug$S                   10000000     node:node.exe
 0000:fffc7000       .debug$S                   10000000     node:node.exe
 0000:fffc7000       .debug$S                   10000000     node:node.exe
 0000:fffc7000       .debug$S                   10000000     node:node.exe
 0000:fffc7000       .debug$S                   10000000     node:node.exe
 0000:fffc7000       .debug$S                   10000000     node:node.exe
 0000:fffc7000       .debug$S                   10000000     node:node.exe
 0000:fffc7000       .debug$S                   10000000     node:node.exe
 0000:fffc7000       .debug$S                   10000000     kernel32:KERNEL32.dll
 0000:fffc7000       .debug$S                   10000000     kernel32:KERNEL32.dll
 0000:fffc7000       .debug$S                   10000000     kernel32:KERNEL32.dll
 0000:fffc7000       .debug$S                   10000000     kernel32:KERNEL32.dll
 0000:fffc7000       .debug$S                   10000000     kernel32:KERNEL32.dll
 0000:fffc7000       .debug$S                   10000000     kernel32:KERNEL32.dll
 0000:fffc7000       .debug$S                   10000000     kernel32:KERNEL32.dll
 0000:fffc7000       .debug$S                   10000000     kernel32:KERNEL32.dll
 0000:fffc7000       .debug$S                   10000000     kernel32:KERNEL32.dll
 0000:fffc7000       .debug$S                   10000000     kernel32:KERNEL32.dll
 0000:fffc7000       .debug$S                   10000000     kernel32:KERNEL32.dll
 0000:fffc7000       .debug$S                   10000000     kernel32:KERNEL32.dll
 0000:fffc7000       .debug$S                   10000000     kernel32:KERNEL32.dll
 0000:fffc7000       .debug$S                   10000000     kernel32:KERNEL32.dll
 0000:fffc7000       .debug$S                   10000000     kernel32:KERNEL32.dll
 0000:fffc7000       .debug$S                   10000000     kernel32:KERNEL32.dll
 0000:fffc7000       .debug$S                   10000000     kernel32:KERNEL32.dll
 0000:fffc7000       .debug$S                   10000000     kernel32:KERNEL32.dll
 0000:fffc7000       .debug$S                   10000000     kernel32:KERNEL32.dll
 0000:fffc7000       .debug$S                   10000000     kernel32:KERNEL32.dll
 0000:fffc7000       .debug$S                   10000000     kernel32:KERNEL32.dll
 0000:fffc7000       .debug$S                   10000000     kernel32:KERNEL32.dll
 0000:fffc7000       .debug$S                   10000000     kernel32:KERNEL32.dll
 0000:fffc7000       .debug$S                   10000000     kernel32:KERNEL32.dll
 0000:fffc7000       .debug$S                   10000000     kernel32:KERNEL32.dll
 0000:fffc7000       .debug$S                   10000000     kernel32:KERNEL32.dll
 0000:fffc7000       .debug$S                   10000000     kernel32:KERNEL32.dll
 0000:fffc7000       .debug$S                   10000000     kernel32:KERNEL32.dll
 0000:fffc7000       .debug$S                   10000000     kernel32:KERNEL32.dll
 0000:fffc7000       .debug$S                   10000000     kernel32:KERNEL32.dll
 0000:fffc7000       .debug$S                   10000000     kernel32:KERNEL32.dll
 0000:fffc7000       .debug$S                   10000000     kernel32:KERNEL32.dll
 0000:fffc7000       .debug$S                   10000000     kernel32:KERNEL32.dll
 0000:fffc7000       .debug$S                   10000000     kernel32:KERNEL32.dll
 0000:fffc7000       .debug$S                   10000000     kernel32:KERNEL32.dll
 0000:fffc7000       .debug$S                   10000000     kernel32:KERNEL32.dll
 0000:fffc7000       .debug$S                   10000000     kernel32:KERNEL32.dll
 0000:fffc7000       .debug$S                   10000000     kernel32:KERNEL32.dll
 0000:fffc7000       .debug$S                   10000000     kernel32:KERNEL32.dll
 0000:fffc7000       .debug$S                   10000000     kernel32:KERNEL32.dll
 0000:fffc7000       .debug$S                   10000000     kernel32:KERNEL32.dll
 0000:fffc7000       .debug$S                   10000000     kernel32:KERNEL32.dll
 0000:fffc7000       .debug$S                   10000000     kernel32:KERNEL32.dll
 0000:fffc7000       .debug$S                   10000000     kernel32:KERNEL32.dll
 0000:fffc7000       .debug$S                   10000000     kernel32:KERNEL32.dll
 0000:fffc7000       .debug$S                   10000000     kernel32:KERNEL32.dll
 0000:fffc7000       .debug$S                   10000000     kernel32:KERNEL32.dll
 0000:fffc7000       .debug$S                   10000000     kernel32:KERNEL32.dll
 0000:fffc7000       .debug$S                   10000000     kernel32:KERNEL32.dll
 0000:fffc7000       .debug$S                   10000000     kernel32:KERNEL32.dll
 0000:fffc7000       .debug$S                   10000000     kernel32:KERNEL32.dll
 0000:fffc7000       .debug$S                   10000000     kernel32:KERNEL32.dll
 0000:fffc7000       .debug$S                   10000000     kernel32:KERNEL32.dll
 0000:fffc7000       .debug$S                   10000000     kernel32:KERNEL32.dll
 0000:fffc7000       .debug$S                   10000000     kernel32:KERNEL32.dll
 0000:fffc7000       .debug$S                   10000000     kernel32:KERNEL32.dll
 0000:fffc7000       .debug$S                   10000000     kernel32:KERNEL32.dll
 0000:fffc7000       .debug$S                   10000000     kernel32:KERNEL32.dll
 0000:fffc7000       .debug$S                   10000000     kernel32:KERNEL32.dll
 0000:fffc7000       .debug$S                   10000000     kernel32:KERNEL32.dll
 0000:fffc7000       .debug$S                   10000000     kernel32:KERNEL32.dll
 0000:fffc7000       .debug$S                   10000000     kernel32:KERNEL32.dll
 0000:fffc7000       .debug$S                   10000000     kernel32:KERNEL32.dll
 0000:fffc7000       .debug$S                   10000000     kernel32:KERNEL32.dll
 0000:fffc7000       .debug$S                   10000000     kernel32:KERNEL32.dll
 0000:fffc7000       .debug$S                   10000000     kernel32:KERNEL32.dll
 0000:fffc7000       .debug$S                   10000000     kernel32:KERNEL32.dll
 0000:fffc7000       .debug$S                   10000000     kernel32:KERNEL32.dll
 0000:fffc7000       .debug$S                   10000000     kernel32:KERNEL32.dll
 0000:fffc7000       .debug$S                   10000000     kernel32:KERNEL32.dll
 0000:fffc7000       .debug$S                   10000000     kernel32:KERNEL32.dll
 0000:fffc7000       .debug$S                   10000000     kernel32:KERNEL32.dll
 0000:fffc7000       .debug$S                   10000000     kernel32:KERNEL32.dll
 0000:fffc7000       .debug$S                   10000000     kernel32:KERNEL32.dll
 0000:fffc7000       .debug$S                   10000000     kernel32:KERNEL32.dll
 0000:fffc7000       .debug$S                   10000000     kernel32:KERNEL32.dll
 0000:fffc7000       .debug$S                   10000000     kernel32:KERNEL32.dll
 0000:fffc7000       .debug$S                   10000000     kernel32:KERNEL32.dll
 0000:fffc7000       .debug$S                   10000000     kernel32:KERNEL32.dll
 0000:fffc7000       .debug$S                   10000000     kernel32:KERNEL32.dll
 0000:fffc7000       .debug$S                   10000000     kernel32:KERNEL32.dll
 0000:fffc7000       .debug$S                   10000000     kernel32:KERNEL32.dll
 0000:fffc7000       .debug$S                   10000000     kernel32:KERNEL32.dll
 0000:fffc7000       .debug$S                   10000000     kernel32:KERNEL32.dll
 0000:fffc7000       .debug$S                   10000000     node:node.exe
 0000:fffc7000       .debug$S                   10000000     node:node.exe
 0000:fffc7000       .debug$S                   10000000     node:node.exe
 0000:fffc7000       .debug$S                   10000000     node:node.exe
 0000:fffc7000       .debug$S                   10000000     node:node.exe
 0000:fffc7000       .debug$S                   10000000     node:node.exe
 0000:fffc7000       .debug$S                   10000000     node:node.exe
 0000:fffc7000       .debug$S                   10000000     node:node.exe
 0000:fffc7000       .debug$S                   10000000     node:node.exe
 0000:fffc7000       .debug$S                   10000000     node:node.exe
 0000:fffc7000       .debug$S                   10000000     node:node.exe
 0000:fffc7000       .debug$S                   10000000     node:node.exe
 0000:fffc7000       .debug$S                   10000000     node:node.exe
 0000:fffc7000       .debug$S                   10000000     node:node.exe
 0000:fffc7000       .debug$S                   10000000     NtDirect:NtDirect.dll
 0000:fffc7000       .debug$S                   10000000     NtDirect:NtDirect.dll
 0000:fffc7000       .debug$S                   10000000     NtDirect:NtDirect.dll
 0000:fffc7000       .debug$S                   10000000     NtDirect:NtDirect.dll
 0000:fffc7000       .debug$S                   10000000     NtDirect:NtDirect.dll
 0000:fffc7000       .debug$S                   10000000     NtDirect:NtDirect.dll
 0000:fffc7000       .debug$S                   10000000     NtDirect:NtDirect.dll
 0000:fffc7000       .debug$S                   10000000     NtDirect:NtDirect.dll
 0000:fffc7000       .debug$S                   10000000     NtDirect:NtDirect.dll
 0000:fffc7000       .debug$S                   10000000     NtDirect:NtDirect.dll
 0000:fffc7000       .debug$S                   10000000     NtDirect:NtDirect.dll
 0000:fffc7000       .debug$S                   10000000     NtDirect:NtDirect.dll
 0000:fffc7000       .debug$S                   10000000     NtDirect:NtDirect.dll
 0000:fffc7000       .debug$S                   10000000     NtDirect:NtDirect.dll
 0000:fffc7000       .debug$S                   10000000     NtDirect:NtDirect.dll
 0000:fffc7000       .debug$S                   10000000     NtDirect:NtDirect.dll
 0000:fffc7000       .debug$S                   10000000     NtDirect:NtDirect.dll
 0000:fffc7000       .debug$S                   10000000     NtDirect:NtDirect.dll
 0000:fffc7000       .debug$S                   10000000     NtDirect:NtDirect.dll
 0000:fffc7000       .debug$S                   10000000     NtDirect:NtDirect.dll
 0000:fffc7000       .debug$S                   10000000     NtDirect:NtDirect.dll
 0000:fffc7000       .debug$S                   10000000     NtDirect:NtDirect.dll
 0001:00000000       ??__Einitlocks@std@@YAXXZ  10001000 f   libcpmt:xlock.obj
 0001:00000016       ??__Ecout@std@@YAXXZ       10001016 f   libcpmt:cout.obj
 0001:00000035       ??__Efout@std@@YAXXZ       10001035 f   libcpmt:cout.obj
 0001:0000006f       ??__Einit_cout@std@@YAXXZ  1000106f f   libcpmt:cout.obj
 0001:00000079       ??__Einitlocks@@YAXXZ      10001079 f   libcpmt:cout.obj
 0001:0000008f       ??__E_Fac_tidy_reg@std@@YAXXZ 1000108f f   libcpmt:locale0.obj
 0001:0000009b       ??__Eclassic_locale@std@@YAXXZ 1000109b f   libcpmt:locale0.obj
 0001:000000a7       ??__Einit_atexit@@YAXXZ    100010a7 f   libcpmt:iosptrs.obj
 0001:000000b3       ??__Einitlocks@std@@YAXXZ  100010b3 f   libcpmt:iosptrs.obj
 0001:00000130       __register_NTDirect32      10001130 f   main.obj
 0001:0000126c       $LN89                      1000226c     api.obj
 0001:00001274       $LN84                      10002274     api.obj
 0001:00008b40       ?<lambda_invoker_cdecl>@<lambda_fcedd3ee505cd3203e191721312381d5>@@CAXPAUnapi_env__@@PAX1@Z 10009b40 f   api.obj
 0001:00008b50       ?load_exe_hook@@YGP6GHXZIPAUDelayLoadInfo@@@Z 10009b50 f   win_delay_load_hook.obj
 0001:00008e6e       ??$_Reallocate_grow_by@V<lambda_15711c68e099a15a58f4d77303cb286d>@@D@?$basic_string@DU?$char_traits@D@std@@V?$allocator@D@2@@std@@QAEAAV01@IV<lambda_15711c68e099a15a58f4d77303cb286d>@@D@Z 10009e6e f   libcpmt:cout.obj
 0001:000096df       _report_memory_leaks       1000a6df f i libucrt:initialization.obj
 0001:000096df       _initialize_global_state_isolation 1000a6df f i libucrt:initialization.obj
 0001:000096df       _initialize_environment    1000a6df f i libucrt:initialization.obj
 0001:000096df       _uninitialize_c            1000a6df f i libucrt:initialization.obj
 0001:000096df       _uninitialize_global_state_isolation 1000a6df f i libucrt:initialization.obj
 0001:00009bb2       _no_op_initialize          1000abb2 f i libucrt:wsetlocale.obj
 0001:0000a532       _tidy_global               1000b532 f   libcpmt:locale0.obj
 0001:0000a928       ?initialize_pointers@@YAHXZ 1000b928 f   libcpmt:winapisupp.obj
 0001:0000b2b8       ?dllmain_crt_dispatch@@YGHQAUHINSTANCE__@@KQAX@Z 1000c2b8 f   LIBCMT:dll_dllmain.obj
 0001:0000b30b       ?dllmain_crt_process_attach@@YAHQAUHINSTANCE__@@QAX@Z 1000c30b f   LIBCMT:dll_dllmain.obj
 0001:0000b415       ?dllmain_crt_process_detach@@YAH_N@Z 1000c415 f   LIBCMT:dll_dllmain.obj
 0001:0000b4a7       ?dllmain_dispatch@@YAHQAUHINSTANCE__@@KQAX@Z 1000c4a7 f   LIBCMT:dll_dllmain.obj
 0001:0000b5ad       ?dllmain_raw@@YGHQAUHINSTANCE__@@KQAX@Z 1000c5ad f   LIBCMT:dll_dllmain.obj
 0001:0000b618       ?find_pe_section@@YAPAU_IMAGE_SECTION_HEADER@@QAEI@Z 1000c618 f   LIBCMT:utility.obj
 0001:0000ba50       $$000000                   1000ca50     LIBCMT:alloca16.obj
 0001:0000ba80       $$000000                   1000ca80     LIBCMT:llmul.obj
 0001:0000bac0       $$000000                   1000cac0     LIBCMT:ulldiv.obj
 0001:0000bd95       ___get_entropy             1000cd95 f   LIBCMT:gs_support.obj
 0001:0000bff0       $$000000                   1000cff0     LIBCMT:_sehprolg4_.obj
 0001:0000c1f0       $$000000                   1000d1f0     LIBCMT:chkstk.obj
 0001:0000c6f0       $$000000                   1000d6f0     libvcruntime:memcpy.obj
 0001:0000c954       TrailingUpVec              1000d954     libvcruntime:memcpy.obj
 0001:0000ca00       TrailingDownVec            1000da00     libvcruntime:memcpy.obj
 0001:0000cc70       $$000000                   1000dc70     libvcruntime:memmove.obj
 0001:0000ced4       TrailingUpVec              1000ded4     libvcruntime:memmove.obj
 0001:0000cf80       TrailingDownVec            1000df80     libvcruntime:memmove.obj
 0001:0000d1f0       $$000000                   1000e1f0     libvcruntime:memset.obj
 0001:0000d490       $$000000                   1000e490     libvcruntime:memchr.obj
 0001:0000e461       $LN1285                    1000f461     libvcruntime:_memcmp_.obj
 0001:0000e4f0       _ValidateLocalCookies      1000f4f0 f   libvcruntime:_chandler4_.obj
 0001:0000e897       ??$BuildCatchObjectHelperInternal@$$CBU_s_HandlerType@@@@YAHPAUEHExceptionRecord@@PAXPBU_s_HandlerType@@PBU_s_CatchableType@@@Z 1000f897 f   libvcruntime:frame.obj
 0001:0000e9d6       ??$BuildCatchObjectInternal@$$CBU_s_HandlerType@@@@YAXPAUEHExceptionRecord@@PAXPBU_s_HandlerType@@PBU_s_CatchableType@@@Z 1000f9d6 f   libvcruntime:frame.obj
 0001:0000ea6f       ??$CatchIt@V__FrameHandler3@@@@YAXPAUEHExceptionRecord@@PAUEHRegistrationNode@@PAU_CONTEXT@@PAXPBU_s_FuncInfo@@PBU_s_HandlerType@@PBU_s_CatchableType@@PBU_s_TryBlockMapEntry@@H1E@Z 1000fa6f f   libvcruntime:frame.obj
 0001:0000eaef       ??$FindHandler@V__FrameHandler3@@@@YAXPAUEHExceptionRecord@@PAUEHRegistrationNode@@PAU_CONTEXT@@PAXPBU_s_FuncInfo@@EH1@Z 1000faef f   libvcruntime:frame.obj
 0001:0000ee7d       ??$FindHandlerForForeignException@V__FrameHandler3@@@@YAXPAUEHExceptionRecord@@PAUEHRegistrationNode@@PAU_CONTEXT@@PAXPBU_s_FuncInfo@@HH1@Z 1000fe7d f   libvcruntime:frame.obj
 0001:0000f170       ?CallCatchBlock@@YAPAXPAUEHExceptionRecord@@PAUEHRegistrationNode@@PAU_CONTEXT@@PBU_s_FuncInfo@@PAXHK@Z 10010170 f   libvcruntime:frame.obj
 0001:0000f334       ?CallUnexpected@@YAXPBU_s_ESTypeList@@@Z 10010334 f   libvcruntime:frame.obj
 0001:0000f354       __catch$?CallUnexpected@@YAXPBU_s_ESTypeList@@@Z$0 10010354 f   libvcruntime:frame.obj
 0001:0000f36e       ?ExFilterRethrow@@YAHPAU_EXCEPTION_POINTERS@@@Z 1001036e f   libvcruntime:frame.obj
 0001:0000f4b8       ?IsInExceptionSpec@@YAEPAUEHExceptionRecord@@PBU_s_ESTypeList@@@Z 100104b8 f   libvcruntime:frame.obj
 0001:0000f580       $$000000                   10010580     libvcruntime:lowhelpr.obj
 0001:0000f630       $$000000                   10010630     libvcruntime:_exsup4_.obj
 0001:0000f6c0       __unwind_handler4          100106c0 f   libvcruntime:_exsup4_.obj
 0001:0000f802       ?try_get_first_available_module@@YAPAUHINSTANCE__@@QBW4module_id@?A0x03f7da57@@0@Z 10010802 f   libvcruntime:winapi_downlevel.obj
 0001:0000f8c6       ?try_get_function@@YAPAXW4function_id@?A0x03f7da57@@QBDQBW4module_id@2@2@Z 100108c6 f   libvcruntime:winapi_downlevel.obj
 0001:0000fb10       $$000000                   10010b10     libvcruntime:_exsup_.obj
 0001:0000fb31       __unwind_handler           10010b31 f   libvcruntime:_exsup_.obj
 0001:0000fed0       $$000000                   10010ed0     libucrt:strcspn.obj
 0001:00010458       ??$?RV<lambda_2866be3712abc81a800a822484c830d8>@@AAV<lambda_39ca0ed439415581b5b15c265174cece>@@V<lambda_2b24c74d71094a6cd0cb82e44167d71b>@@@?$__crt_seh_guarded_call@X@@QAEX$$QAV<lambda_2866be3712abc81a800a822484c830d8>@@AAV<lambda_39ca0ed439415581b5b15c265174cece>@@$$QAV<lambda_2b24c74d71094a6cd0cb82e44167d71b>@@@Z 10011458 f   libucrt:fflush.obj
 0001:000104d9       ??$?RV<lambda_2cc53f568c5a2bb6f192f930a45d44ea>@@AAV<lambda_ab61a845afdef5b7c387490eaf3616ee>@@V<lambda_c2ffc0b7726aa6be21d5f0026187e748>@@@?$__crt_seh_guarded_call@X@@QAEX$$QAV<lambda_2cc53f568c5a2bb6f192f930a45d44ea>@@AAV<lambda_ab61a845afdef5b7c387490eaf3616ee>@@$$QAV<lambda_c2ffc0b7726aa6be21d5f0026187e748>@@@Z 100114d9 f   libucrt:fflush.obj
 0001:0001057b       ??$?RV<lambda_6d20deecaf4856105ebacbad442d1079>@@AAV<lambda_9a32fed5bf61b6b509b2d3f6003082a1>@@V<lambda_63ea2239ed67c638ddbae41947fdf875>@@@?$__crt_seh_guarded_call@H@@QAEH$$QAV<lambda_6d20deecaf4856105ebacbad442d1079>@@AAV<lambda_9a32fed5bf61b6b509b2d3f6003082a1>@@$$QAV<lambda_63ea2239ed67c638ddbae41947fdf875>@@@Z 1001157b f   libucrt:fflush.obj
 0001:000105d1       ?common_flush_all@@YAH_N@Z 100115d1 f   libucrt:fflush.obj
 0001:00010620       ?common_flush_all_should_try_to_flush_stream@@YA_NV__crt_stdio_stream@@QAH@Z 10011620 f   libucrt:fflush.obj
 0001:00010652       ?is_stream_flushable_or_commitable@@YA_NJ@Z 10011652 f   libucrt:fflush.obj
 0001:00010cc1       _memcpy_s                  10011cc1 f   libucrt:mbctype.obj
 0001:00010cc1       _memcpy_s                  10011cc1 f   libucrt:fread.obj
 0001:00010df7       ?common_fseek@@YAHV__crt_stdio_stream@@_JH@Z 10011df7 f   libucrt:fseek.obj
 0001:00010e78       ?common_fseek_binary_mode_read_only_fast_track_nolock@@YA_NV__crt_stdio_stream@@_JH@Z 10011e78 f   libucrt:fseek.obj
 0001:00010f51       ?common_fseek_nolock@@YAHV__crt_stdio_stream@@_JH@Z 10011f51 f   libucrt:fseek.obj
 0001:0001105a       ??$?RV<lambda_cd3bfd923e8d1349099e544c97b1bd8e>@@AAV<lambda_54dcfcba6f8e0c549fa430f4d53fb7dd>@@V<lambda_5e1d0fa2aa2b73b187bf8b7e1d30c7f8>@@@?$__crt_seh_guarded_call@I@@QAEI$$QAV<lambda_cd3bfd923e8d1349099e544c97b1bd8e>@@AAV<lambda_54dcfcba6f8e0c549fa430f4d53fb7dd>@@$$QAV<lambda_5e1d0fa2aa2b73b187bf8b7e1d30c7f8>@@@Z 1001205a f   libucrt:fwrite.obj
 0001:000110ab       ??R<lambda_54dcfcba6f8e0c549fa430f4d53fb7dd>@@QBEIXZ 100120ab f   libucrt:fwrite.obj
 0001:000112d0       ??$?RV<lambda_70c0770dcc4f6ec6272bb01dc82d3c91>@@AAV<lambda_ca71763b3c0644891230e4f79ea54fa6>@@V<lambda_ca266f0f09348b8765c113e3a39a2bc1>@@@?$__crt_seh_guarded_call@H@@QAEH$$QAV<lambda_70c0770dcc4f6ec6272bb01dc82d3c91>@@AAV<lambda_ca71763b3c0644891230e4f79ea54fa6>@@$$QAV<lambda_ca266f0f09348b8765c113e3a39a2bc1>@@@Z 100122d0 f   libucrt:setvbuf.obj
 0001:00011321       ??R<lambda_ca71763b3c0644891230e4f79ea54fa6>@@QBEHXZ 10012321 f   libucrt:setvbuf.obj
 0001:000113bb       ?set_buffer@@YAHV__crt_stdio_stream@@QADIH@Z 100123bb f   libucrt:setvbuf.obj
 0001:000115dc       ??$?RV<lambda_0fef6fff2b5e6b53303c9058db11ae1f>@@AAV<lambda_082c17da81b0962e08c0587ee0fac50c>@@V<lambda_fa6e051aed0a38726081083cc7c328e9>@@@?$__crt_seh_guarded_call@PAD@@QAEPAD$$QAV<lambda_0fef6fff2b5e6b53303c9058db11ae1f>@@AAV<lambda_082c17da81b0962e08c0587ee0fac50c>@@$$QAV<lambda_fa6e051aed0a38726081083cc7c328e9>@@@Z 100125dc f   libucrt:setlocale.obj
 0001:0001162d       ??R<lambda_082c17da81b0962e08c0587ee0fac50c>@@QBEPADXZ 1001262d f   libucrt:setlocale.obj
 0001:00011798       _call_wsetlocale           10012798 f   libucrt:setlocale.obj
 0001:00011f80       $$000000                   10012f80     libucrt:pow_impl.obj
 0001:00012284       ??$common_tox_l@$1?internal_isupper_l@@YA_NHQAU__crt_locale_pointers@@@Z$1?internal_map_lower@@YAHH0@Z@@YAHHKQAU__crt_locale_pointers@@@Z 10013284 f   libucrt:tolower_toupper.obj
 0001:000123ce       ?internal_isupper_l@@YA_NHQAU__crt_locale_pointers@@@Z 100133ce f   libucrt:tolower_toupper.obj
 0001:000128e4       ??$?RV<lambda_03b1d95aef87969028cfba75ccab2455>@@AAV<lambda_6e4b09c48022b2350581041d5f6b0c4c>@@V<lambda_22bdf7517842c4b3e53723af5aa32b9e>@@@?$__crt_seh_guarded_call@X@@QAEX$$QAV<lambda_03b1d95aef87969028cfba75ccab2455>@@AAV<lambda_6e4b09c48022b2350581041d5f6b0c4c>@@$$QAV<lambda_22bdf7517842c4b3e53723af5aa32b9e>@@@Z 100138e4 f   libucrt:exit.obj
 0001:00012927       ??R<lambda_6e4b09c48022b2350581041d5f6b0c4c>@@QBE@XZ 10013927 f   libucrt:exit.obj
 0001:00012a03       ?atexit_exception_filter@@YAHK@Z 10013a03 f   libucrt:exit.obj
 0001:00012a16       ?common_exit@@YAXHW4_crt_exit_cleanup_mode@@W4_crt_exit_return_mode@@@Z 10013a16 f   libucrt:exit.obj
 0001:00012a7c       ?exit_or_terminate_process@@YAXI@Z 10013a7c f   libucrt:exit.obj
 0001:00012abe       ?is_managed_app@@YA_NXZ    10013abe f   libucrt:exit.obj
 0001:00012b02       ?try_cor_exit_process@@YAXI@Z 10013b02 f   libucrt:exit.obj
 0001:00012ba6       ??$common_configure_argv@D@@YAHW4_crt_argv_mode@@@Z 10013ba6 f   libucrt:argv_parsing.obj
 0001:00012cde       ??$parse_command_line@D@@YAXPADPAPAD0PAI2@Z 10013cde f   libucrt:argv_parsing.obj
 0001:00012eb1       ??$common_initialize_environment_nolock@D@@YAHXZ 10013eb1 f   libucrt:environment_initialization.obj
 0001:00012f04       ??$create_environment@D@@YAQAPADQAD@Z 10013f04 f   libucrt:environment_initialization.obj
 0001:00012fd6       ??$free_environment@_W@@YAXQAPA_W@Z 10013fd6 f   libucrt:environment_initialization.obj
 0001:00012fd6       ??$free_environment@D@@YAXQAPAD@Z 10013fd6 f   libucrt:environment_initialization.obj
 0001:00013045       ??$uninitialize_environment_internal@D@@YAXAAPAPAD@Z 10014045 f   libucrt:environment_initialization.obj
 0001:00013060       ??$uninitialize_environment_internal@_W@@YAXAAPAPA_W@Z 10014060 f   libucrt:environment_initialization.obj
 0001:000130b7       ??$?RV<lambda_69a2805e680e0e292e8ba93315fe43a8>@@AAV<lambda_f03950bc5685219e0bcd2087efbe011e>@@V<lambda_03fcd07e894ec930e3f35da366ca99d6>@@@?$__crt_seh_guarded_call@H@@QAEH$$QAV<lambda_69a2805e680e0e292e8ba93315fe43a8>@@AAV<lambda_f03950bc5685219e0bcd2087efbe011e>@@$$QAV<lambda_03fcd07e894ec930e3f35da366ca99d6>@@@Z 100140b7 f   libucrt:onexit.obj
 0001:00013108       ??$?RV<lambda_7ac4055421038abea736e08bd20712a4>@@AAV<lambda_a10e4b102d4a2c3aac6f4f48bbdf488f>@@V<lambda_1da61822885009acd1bf848af4f9644b>@@@?$__crt_seh_guarded_call@H@@QAEH$$QAV<lambda_7ac4055421038abea736e08bd20712a4>@@AAV<lambda_a10e4b102d4a2c3aac6f4f48bbdf488f>@@$$QAV<lambda_1da61822885009acd1bf848af4f9644b>@@@Z 10014108 f   libucrt:onexit.obj
 0001:00013178       ??R<lambda_a10e4b102d4a2c3aac6f4f48bbdf488f>@@QBEHXZ 10014178 f   libucrt:onexit.obj
 0001:000132b9       ??R<lambda_f03950bc5685219e0bcd2087efbe011e>@@QBEHXZ 100142b9 f   libucrt:onexit.obj
 0001:00013494       _initialize_global_variables 10014494 f   libucrt:initialization.obj
 0001:000134a1       _initialize_c              100144a1 f   libucrt:initialization.obj
 0001:000134bb       _uninitialize_environment  100144bb f   libucrt:initialization.obj
 0001:000134c3       _initialize_pointers       100144c3 f   libucrt:initialization.obj
 0001:00013500       _uninitialize_vcruntime    10014500 f   libucrt:initialization.obj
 0001:00013509       _uninitialize_allocated_memory 10014509 f   libucrt:initialization.obj
 0001:00013522       _uninitialize_allocated_io_buffers 10014522 f   libucrt:initialization.obj
 0001:00013572       ??R<lambda_af42a3ee9806e9a7305d451646e05244>@@QBEXAAPAU__crt_multibyte_data@@@Z 10014572 f   libucrt:initialization.obj
 0001:00013d40       $$000000                   10014d40     libucrt:strncmp.obj
 0001:00013db8       ??$?RV<lambda_cbab9ec6f41b0180b23cc171c22676b0>@@AAV<lambda_44731a7d0e6d81c3e6aa82d741081786>@@V<lambda_4b292cb8dd18144e164572427af410ab>@@@?$__crt_seh_guarded_call@P6AXH@Z@@QAEP6AXH@Z$$QAV<lambda_cbab9ec6f41b0180b23cc171c22676b0>@@AAV<lambda_44731a7d0e6d81c3e6aa82d741081786>@@$$QAV<lambda_4b292cb8dd18144e164572427af410ab>@@@Z 10014db8 f   libucrt:signal.obj
 0001:00013e12       ?get_global_action_nolock@@YAPAP6AXH@ZH@Z 10014e12 f   libucrt:signal.obj
 0001:00013e54       ?siglookup@@YAPAU__crt_signal_action_t@@HQAU1@@Z 10014e54 f   libucrt:signal.obj
 0001:0001412b       ??$?RV<lambda_15ade71b0218206bbe3333a0c9b79046>@@AAV<lambda_da44e0f8b0f19ba52fefafb335991732>@@V<lambda_207f2d024fc103971653565357d6cd41>@@@?$__crt_seh_guarded_call@X@@QAEX$$QAV<lambda_15ade71b0218206bbe3333a0c9b79046>@@AAV<lambda_da44e0f8b0f19ba52fefafb335991732>@@$$QAV<lambda_207f2d024fc103971653565357d6cd41>@@@Z 1001512b f   libucrt:per_thread_data.obj
 0001:00014173       ??$?RV<lambda_38edbb1296d33220d7e4dd0ed76b244a>@@AAV<lambda_5ce1d447e08cb34b2473517608e21441>@@V<lambda_fb385d3da700c9147fc39e65dd577a8c>@@@?$__crt_seh_guarded_call@X@@QAEX$$QAV<lambda_38edbb1296d33220d7e4dd0ed76b244a>@@AAV<lambda_5ce1d447e08cb34b2473517608e21441>@@$$QAV<lambda_fb385d3da700c9147fc39e65dd577a8c>@@@Z 10015173 f   libucrt:per_thread_data.obj
 0001:000141d4       ??$?RV<lambda_6affb1475c98b40b75cdec977db92e3c>@@AAV<lambda_b8d4b9c228a6ecc3f80208dbb4b4a104>@@V<lambda_608742c3c92a14382c1684fc64f96c88>@@@?$__crt_seh_guarded_call@X@@QAEX$$QAV<lambda_6affb1475c98b40b75cdec977db92e3c>@@AAV<lambda_b8d4b9c228a6ecc3f80208dbb4b4a104>@@$$QAV<lambda_608742c3c92a14382c1684fc64f96c88>@@@Z 100151d4 f   libucrt:per_thread_data.obj
 0001:0001421f       ??$?RV<lambda_a7e850c220f1c8d1e6efeecdedd162c6>@@AAV<lambda_46720907175c18b6c9d2717bc0d2d362>@@V<lambda_9048902d66e8d99359bc9897bbb930a8>@@@?$__crt_seh_guarded_call@X@@QAEX$$QAV<lambda_a7e850c220f1c8d1e6efeecdedd162c6>@@AAV<lambda_46720907175c18b6c9d2717bc0d2d362>@@$$QAV<lambda_9048902d66e8d99359bc9897bbb930a8>@@@Z 1001521f f   libucrt:per_thread_data.obj
 0001:0001426f       ?construct_ptd@@YAXQAU__acrt_ptd@@QAPAU__crt_locale_data@@@Z 1001526f f   libucrt:per_thread_data.obj
 0001:0001430a       ?destroy_fls@@YGXPAX@Z     1001530a f   libucrt:per_thread_data.obj
 0001:0001432b       ?destroy_ptd@@YAXQAU__acrt_ptd@@@Z 1001532b f   libucrt:per_thread_data.obj
 0001:000143fa       ?replace_current_thread_locale_nolock@@YAXQAU__acrt_ptd@@QAU__crt_locale_data@@@Z 100153fa f   libucrt:per_thread_data.obj
 0001:00014a09       ??$?RV<lambda_135d2772fca65dc1248eeaa1b56e886a>@@AAV<lambda_2a444430fde8c29194d880d93eed5e8f>@@AAV<lambda_8dff2cf36a5417162780cd64fa2883ef>@@@?$__crt_seh_guarded_call@X@@QAEX$$QAV<lambda_135d2772fca65dc1248eeaa1b56e886a>@@AAV<lambda_2a444430fde8c29194d880d93eed5e8f>@@AAV<lambda_8dff2cf36a5417162780cd64fa2883ef>@@@Z 10015a09 f   libucrt:wsetlocale.obj
 0001:00014a44       ??$?RV<lambda_4fdada1b837b2abbf20876fac97688ad>@@AAV<lambda_b57350f2640456a0859d250846f69caf>@@V<lambda_eed5e4f92b5b7d55fa22c48c484aaa54>@@@?$__crt_seh_guarded_call@X@@QAEX$$QAV<lambda_4fdada1b837b2abbf20876fac97688ad>@@AAV<lambda_b57350f2640456a0859d250846f69caf>@@$$QAV<lambda_eed5e4f92b5b7d55fa22c48c484aaa54>@@@Z 10015a44 f   libucrt:wsetlocale.obj
 0001:00014a87       ??$?RV<lambda_e5124f882df8998aaf41531e079ba474>@@AAV<lambda_3e16ef9562a7dcce91392c22ab16ea36>@@V<lambda_e25ca0880e6ef98be67edffd8c599615>@@@?$__crt_seh_guarded_call@X@@QAEX$$QAV<lambda_e5124f882df8998aaf41531e079ba474>@@AAV<lambda_3e16ef9562a7dcce91392c22ab16ea36>@@$$QAV<lambda_e25ca0880e6ef98be67edffd8c599615>@@@Z 10015a87 f   libucrt:wsetlocale.obj
 0001:00014aeb       ??R<lambda_2a444430fde8c29194d880d93eed5e8f>@@QBE@XZ 10015aeb f   libucrt:wsetlocale.obj
 0001:00014b57       ??R<lambda_b57350f2640456a0859d250846f69caf>@@QBEXXZ 10015b57 f   libucrt:wsetlocale.obj
 0001:00014eac       __copytlocinfo_nolock      10015eac f   libucrt:wsetlocale.obj
 0001:0001537e       __wsetlocale_get_all       1001637e f   libucrt:wsetlocale.obj
 0001:0001551b       __wsetlocale_nolock        1001651b f   libucrt:wsetlocale.obj
 0001:00015807       __wsetlocale_set_cat       10016807 f   libucrt:wsetlocale.obj
 0001:00015bd1       ?initialize_inherited_file_handles_nolock@@YAXXZ 10016bd1 f   libucrt:ioinit.obj
 0001:00015c89       ?initialize_stdio_handles_nolock@@YAXXZ 10016c89 f   libucrt:ioinit.obj
 0001:000166af       ?<lambda_invoker_stdcall>@<lambda_29d3c280b90b41c2ae070ffca879996a>@@CGHPA_W@Z 100176af f   libucrt:winapi_thunks.obj
 0001:000166bc       ??$?RV<lambda_93797fb4802c957ba6a7f08e1250235b>@@AAV<lambda_1f3ce6bd48e0aa2e72a71c02eee379d3>@@V<lambda_56cae30c9364c9b6c15aeaac05d0418e>@@@?$__crt_seh_guarded_call@H@@QAEH$$QAV<lambda_93797fb4802c957ba6a7f08e1250235b>@@AAV<lambda_1f3ce6bd48e0aa2e72a71c02eee379d3>@@$$QAV<lambda_56cae30c9364c9b6c15aeaac05d0418e>@@@Z 100176bc f   libucrt:winapi_thunks.obj
 0001:00016744       ??B<lambda_29d3c280b90b41c2ae070ffca879996a>@@QBEP6GHPA_W@ZXZ 10017744 f   libucrt:winapi_thunks.obj
 0001:0001674a       ??R<lambda_29d3c280b90b41c2ae070ffca879996a>@@QBEHPA_W@Z 1001774a f   libucrt:winapi_thunks.obj
 0001:00016790       ?try_get_AreFileApisANSI@@YAP6GHXZXZ 10017790 f   libucrt:winapi_thunks.obj
 0001:000167aa       ?try_get_CompareStringEx@@YAP6GHPB_WK0H0HPAU_nlsversioninfo@@PAXJ@ZXZ 100177aa f   libucrt:winapi_thunks.obj
 0001:000167c4       ?try_get_EnumSystemLocalesEx@@YAP6GHP6GHPA_WKJ@ZKJPAX@ZXZ 100177c4 f   libucrt:winapi_thunks.obj
 0001:000167de       ?try_get_GetDateFormatEx@@YAP6GHPB_WKPBU_SYSTEMTIME@@0PA_WH0@ZXZ 100177de f   libucrt:winapi_thunks.obj
 0001:000167f8       ?try_get_GetLocaleInfoEx@@YAP6GHPB_WKPA_WH@ZXZ 100177f8 f   libucrt:winapi_thunks.obj
 0001:00016812       ?try_get_GetTimeFormatEx@@YAP6GHPB_WKPBU_SYSTEMTIME@@0PA_WH@ZXZ 10017812 f   libucrt:winapi_thunks.obj
 0001:0001682c       ?try_get_GetUserDefaultLocaleName@@YAP6GHPA_WH@ZXZ 1001782c f   libucrt:winapi_thunks.obj
 0001:00016846       ?try_get_IsValidLocaleName@@YAP6GHPB_W@ZXZ 10017846 f   libucrt:winapi_thunks.obj
 0001:00016860       ?try_get_LCIDToLocaleName@@YAP6GHKPA_WHK@ZXZ 10017860 f   libucrt:winapi_thunks.obj
 0001:0001687a       ?try_get_LCMapStringEx@@YAP6GHPB_WK0HPA_WHPAU_nlsversioninfo@@PAXJ@ZXZ 1001787a f   libucrt:winapi_thunks.obj
 0001:00016894       ?try_get_LocaleNameToLCID@@YAP6GKPB_WK@ZXZ 10017894 f   libucrt:winapi_thunks.obj
 0001:000168ae       ?try_get_first_available_module@@YAPAUHINSTANCE__@@QBW4module_id@?A0x391cf84c@@0@Z 100178ae f   libucrt:winapi_thunks.obj
 0001:00016976       ?try_get_function@@YAPAXW4function_id@?A0x391cf84c@@QBDQBW4module_id@2@2@Z 10017976 f   libucrt:winapi_thunks.obj
 0001:00017012       ??$?RV<lambda_218ce3db14220d0be481dae8ef3383b6>@@AAV<lambda_628dfdc04ba53c8bfc02c9951375f3f5>@@V<lambda_57dc472bd5c9d5f3b2cbca59b8a843ae>@@@?$__crt_seh_guarded_call@H@@QAEH$$QAV<lambda_218ce3db14220d0be481dae8ef3383b6>@@AAV<lambda_628dfdc04ba53c8bfc02c9951375f3f5>@@$$QAV<lambda_57dc472bd5c9d5f3b2cbca59b8a843ae>@@@Z 10018012 f   libucrt:close.obj
 0001:000171fa       ??$?RV<lambda_9e9de3de5fa147e2223d7db92bc10aa6>@@AAV<lambda_38ce7e780aa69e748d6df282ebc68efe>@@V<lambda_8ca6da459f0f6780f1cff60fdc3d00e5>@@@?$__crt_seh_guarded_call@H@@QAEH$$QAV<lambda_9e9de3de5fa147e2223d7db92bc10aa6>@@AAV<lambda_38ce7e780aa69e748d6df282ebc68efe>@@$$QAV<lambda_8ca6da459f0f6780f1cff60fdc3d00e5>@@@Z 100181fa f   libucrt:commit.obj
 0001:00017311       ?write_double_translated_ansi_nolock@@YA?AUwrite_result@?A0x17268360@@HQBDI@Z 10018311 f   libucrt:write.obj
 0001:000174e0       ?write_double_translated_unicode_nolock@@YA?AUwrite_result@?A0x17268360@@QBDI@Z 100184e0 f   libucrt:write.obj
 0001:0001754a       ?write_requires_double_translation_nolock@@YA_NH@Z 1001854a f   libucrt:write.obj
 0001:000175c0       ?write_text_ansi_nolock@@YA?AUwrite_result@?A0x17268360@@HQBDI@Z 100185c0 f   libucrt:write.obj
 0001:0001769d       ?write_text_utf16le_nolock@@YA?AUwrite_result@?A0x17268360@@HQBDI@Z 1001869d f   libucrt:write.obj
 0001:00017788       ?write_text_utf8_nolock@@YA?AUwrite_result@?A0x17268360@@HQBDI@Z 10018788 f   libucrt:write.obj
 0001:00017bb6       ??$common_refill_and_read_nolock@D@@YAHV__crt_stdio_stream@@@Z 10018bb6 f   libucrt:_filbuf.obj
 0001:00017d44       ??$common_ftell@_J@@YA_JV__crt_stdio_stream@@@Z 10018d44 f   libucrt:ftell.obj
 0001:00017dba       ??$common_ftell_nolock@_J@@YA_JV__crt_stdio_stream@@@Z 10018dba f   libucrt:ftell.obj
 0001:00017f3f       ?common_ftell_read_mode_nolock@@YA_JV__crt_stdio_stream@@_J1@Z 10018f3f f   libucrt:ftell.obj
 0001:00018101       ?common_ftell_translated_utf8_nolock@@YA_JV__crt_stdio_stream@@_J@Z 10019101 f   libucrt:ftell.obj
 0001:0001829c       ?count_newline_bytes@@YA_JQBD0W4__crt_lowio_text_mode@@@Z 1001929c f   libucrt:ftell.obj
 0001:00018330       ??$common_flush_and_write_nolock@D@@YAHHV__crt_stdio_stream@@@Z 10019330 f   libucrt:_flsbuf.obj
 0001:00018441       ??$write_buffer_nolock@D@@YA_NDV__crt_stdio_stream@@@Z 10019441 f   libucrt:_flsbuf.obj
 0001:00018517       ??$translate_text_mode_nolock@D@@YAHHQADI@Z 10019517 f   libucrt:read.obj
 0001:0001867a       ??$translate_text_mode_nolock@_W@@YAHHQA_WI@Z 1001967a f   libucrt:read.obj
 0001:0001884d       ?translate_ansi_or_utf8_nolock@@YAHHQADIQA_WI@Z 1001984d f   libucrt:read.obj
 0001:000189a6       ?translate_utf16_from_console_nolock@@YAHHQA_WI@Z 100199a6 f   libucrt:read.obj
 0001:00018edd       ??$common_lseek@_J@@YA_JH_JH@Z 10019edd f   libucrt:lseek.obj
 0001:00018fdf       ??$common_lseek_nolock@_J@@YA_JH_JH@Z 10019fdf f   libucrt:lseek.obj
 0001:000190ec       ?_mbstowcs_l_helper@@YAIPA_WPBDIPAU__crt_locale_pointers@@@Z 1001a0ec f   libucrt:mbstowcs.obj
 0001:000193c8       ?_wcstombs_l_helper@@YAIPADPB_WIPAU__crt_locale_pointers@@@Z 1001a3c8 f   libucrt:wcstombs.obj
 0001:00019821       ?InternalGetLocaleInfoA@@YAHQAU__crt_locale_pointers@@QB_WKQADH@Z 1001a821 f   libucrt:getlocaleinfoa.obj
 0001:00019bb9       ?__acrt_LCMapStringA_stat@@YAHPAU__crt_locale_pointers@@PB_WKPBDHPADHHH@Z 1001abb9 f   libucrt:lcmapstringa.obj
 0001:00019f80       $$000000                   1001af80     libucrt:pow_pentium4.obj
 0001:0001aaa0       $$000000                   1001baa0     libucrt:87tran.obj
 0001:0001acb0       $$000000                   1001bcb0     libucrt:87disp.obj
 0001:0001af10       $$000000                   1001bf10     libucrt:genexcep.obj
 0001:0001af70       $$000000                   1001bf70     libucrt:common.obj
 0001:0001b5bc       ?<lambda_invoker_cdecl>@<lambda_86056e3c024bff449830248dc1621ed2>@@CAHPBX0@Z 1001c5bc f   libucrt:argv_wildcards.obj
 0001:0001b5d4       ??$common_expand_argv_wildcards@D@@YAHQAPADQAPAPAD@Z 1001c5d4 f   libucrt:argv_wildcards.obj
 0001:0001b7c5       ??$copy_and_add_argument_to_buffer@D@@YAHQBD0IAAV?$argument_list@D@?A0x5f5c8891@@@Z 1001c7c5 f   libucrt:argv_wildcards.obj
 0001:0001b878       ??$expand_argument_wildcards@D@@YAHQAD0AAV?$argument_list@D@?A0x5f5c8891@@@Z 1001c878 f   libucrt:argv_wildcards.obj
 0001:0001b9f8       ?expand_if_necessary@?$argument_list@D@?A0x5f5c8891@@AAEHXZ 1001c9f8 f   libucrt:argv_wildcards.obj
 0001:0001baf0       ??$?RV<lambda_ceb1ee4838e85a9d631eb091e2fbe199>@@AAV<lambda_ae742caa10f662c28703da3d2ea5e57e>@@V<lambda_cd08b5d6af4937fe54fc07d0c9bf6b37>@@@?$__crt_seh_guarded_call@X@@QAEX$$QAV<lambda_ceb1ee4838e85a9d631eb091e2fbe199>@@AAV<lambda_ae742caa10f662c28703da3d2ea5e57e>@@$$QAV<lambda_cd08b5d6af4937fe54fc07d0c9bf6b37>@@@Z 1001caf0 f   libucrt:mbctype.obj
 0001:0001bb33       ??R<lambda_ae742caa10f662c28703da3d2ea5e57e>@@QBEXXZ 1001cb33 f   libucrt:mbctype.obj
 0001:0001bbb6       ?CPtoLocaleName@@YAPB_WH@Z 1001cbb6 f   libucrt:mbctype.obj
 0001:0001bbf4       ?getSystemCP@@YAHH@Z       1001cbf4 f   libucrt:mbctype.obj
 0001:0001bc67       ?setSBCS@@YAXPAU__crt_multibyte_data@@@Z 1001cc67 f   libucrt:mbctype.obj
 0001:0001bccc       ?setSBUpLow@@YAXPAU__crt_multibyte_data@@@Z 1001cccc f   libucrt:mbctype.obj
 0001:0001be84       ?setmbcp_internal@@YAHH_NQAU__acrt_ptd@@QAPAU__crt_multibyte_data@@@Z 1001ce84 f   libucrt:mbctype.obj
 0001:0001bf9f       ?update_thread_multibyte_data_internal@@YAPAU__crt_multibyte_data@@QAU__acrt_ptd@@QAPAU1@@Z 1001cf9f f   libucrt:mbctype.obj
 0001:0001c28b       ?x_ismbbtype_l@@YAHPAU__crt_locale_pointers@@IHH@Z 1001d28b f   libucrt:ismbbyte.obj
 0001:0001c315       ?find_end_of_double_null_terminated_sequence@@YAPB_WQB_W@Z 1001d315 f   libucrt:get_environment_from_os.obj
 0001:0001c937       ??R<lambda_0f007d4f94c691a9a85cf1869a09f0c3>@@QBEIPBD@Z 1001d937 f   libucrt:mbrtowc.obj
 0001:0001d229       ?free_crt_array_internal@@YAXQAPBXI@Z 1001e229 f   libucrt:inittime.obj
 0001:0001d261       ?initialize_lc_time@@YA_NQAU__crt_lc_time_data@@QAU__crt_locale_data@@@Z 1001e261 f   libucrt:inittime.obj
 0001:0001d6b3       ??$common_tcsncpy_s@_W@@YAHQA_WIQB_WI@Z 1001e6b3 f   libucrt:wcsncpy_s.obj
 0001:0001d833       _GetLocaleNameFromDefault  1001e833 f   libucrt:get_qualified_locale.obj
 0001:0001d8bc       _GetLocaleNameFromLangCountry 1001e8bc f   libucrt:get_qualified_locale.obj
 0001:0001d956       _GetLocaleNameFromLanguage 1001e956 f   libucrt:get_qualified_locale.obj
 0001:0001d9b1       _GetPrimaryLen             1001e9b1 f   libucrt:get_qualified_locale.obj
 0001:0001d9e5       _LangCountryEnumProcEx@12  1001e9e5 f   libucrt:get_qualified_locale.obj
 0001:0001dcd6       _LanguageEnumProcEx@12     1001ecd6 f   libucrt:get_qualified_locale.obj
 0001:0001dd97       _ProcessCodePage           1001ed97 f   libucrt:get_qualified_locale.obj
 0001:0001de8f       _TestDefaultCountry        1001ee8f f   libucrt:get_qualified_locale.obj
 0001:0001deda       _TranslateName             1001eeda f   libucrt:get_qualified_locale.obj
 0001:0001e146       _CountryEnumProc@4         1001f146 f   libucrt:getqloc_downlevel.obj
 0001:0001e1ef       _GetLcidFromCountry        1001f1ef f   libucrt:getqloc_downlevel.obj
 0001:0001e23a       _GetLcidFromLangCountry    1001f23a f   libucrt:getqloc_downlevel.obj
 0001:0001e2d5       _GetLcidFromLanguage       1001f2d5 f   libucrt:getqloc_downlevel.obj
 0001:0001e336       _GetPrimaryLen             1001f336 f   libucrt:getqloc_downlevel.obj
 0001:0001e362       _LangCountryEnumProc@4     1001f362 f   libucrt:getqloc_downlevel.obj
 0001:0001e5b8       _LanguageEnumProc@4        1001f5b8 f   libucrt:getqloc_downlevel.obj
 0001:0001e68f       _LcidFromHexString         1001f68f f   libucrt:getqloc_downlevel.obj
 0001:0001e6e0       _ProcessCodePage           1001f6e0 f   libucrt:getqloc_downlevel.obj
 0001:0001e7c3       _TestDefaultCountry        1001f7c3 f   libucrt:getqloc_downlevel.obj
 0001:0001e7e8       _TestDefaultLanguage       1001f7e8 f   libucrt:getqloc_downlevel.obj
 0001:0001e858       _TranslateName             1001f858 f   libucrt:getqloc_downlevel.obj
 0001:0001ed36       ?GetTableIndexFromLocaleName@@YAHPB_W@Z 1001fd36 f   libucrt:lcidtoname_downlevel.obj
 0001:0001eff4       ??$common_tcsncpy_s@D@@YAHQADIQBDI@Z 1001fff4 f   libucrt:strncpy_s.obj
 0001:0001f4d0       ?swap@@YAXPAD0I@Z          100204d0 f   libucrt:qsort.obj
 0001:0001f960       $$000000                   10020960     libucrt:strpbrk.obj
 0001:0001fd61       ?initialize_multibyte@@YAHXZ 10020d61 f   libucrt:multibyte_initializer.obj
 0001:0001ffa0       $$000000                   10020fa0     libucrt:log10_impl.obj
 0001:000200b0       $$000000                   100210b0     libucrt:ceil_pentium4.obj
 0001:000201cd       ??$common_xtox@K_W@@YAHKQA_WII_N@Z 100211cd f   libucrt:xtoa.obj
 0001:00020279       ??$common_xtox_s@K_W@@YAHKQA_WII_N@Z 10021279 f   libucrt:xtoa.obj
 0001:000204d4       ?__dcrt_lowio_initialize_console_output@@YAXXZ 100214d4 f   libucrt:initcon.obj
 0001:00020660       $$000000                   10021660     libucrt:log10_pentium4.obj
 0001:00020a70       $$000000                   10021a70     libucrt:_strnicm.obj
 0001:00021140       $$000000                   10022140     LIBCMT:ulldvrm.obj
 0001:000211e0       $$000000                   100221e0     LIBCMT:_sehprolg4gs_.obj
 0001:00021240       $$000000                   10022240     LIBCMT:llshl.obj
 0001:00021260       $$000000                   10022260     LIBCMT:ullshr.obj
 0001:00021280       $$000000                   10022280     LIBCMT:lldvrm.obj
 0001:00021360       $$000000                   10022360     LIBCMT:lldiv.obj
 0001:00021410       $$000000                   10022410     LIBCMT:_ftol2_.obj
 0001:000214d0       $$000000                   100224d0     libvcruntime:strrchr.obj
 0001:00021610       $$000000                   10022610     libvcruntime:strchr.obj
 0001:00021802       __unwindfunclet$??$use_facet@V?$codecvt@DDU_Mbstatet@@@std@@@std@@YAABV?$codecvt@DDU_Mbstatet@@@0@ABVlocale@0@@Z$0 10022802 f   libcpmt:cout.obj
 0001:0002180a       __unwindfunclet$??$use_facet@V?$codecvt@DDU_Mbstatet@@@std@@@std@@YAABV?$codecvt@DDU_Mbstatet@@@0@ABVlocale@0@@Z$1 1002280a f   libcpmt:cout.obj
 0001:00021812       __ehhandler$??$use_facet@V?$codecvt@DDU_Mbstatet@@@std@@@std@@YAABV?$codecvt@DDU_Mbstatet@@@0@ABVlocale@0@@Z 10022812 f   libcpmt:cout.obj
 0001:0002182d       __unwindfunclet$??0?$basic_ostream@DU?$char_traits@D@std@@@std@@QAE@PAV?$basic_streambuf@DU?$char_traits@D@std@@@1@_N@Z$0 1002282d f   libcpmt:cout.obj
 0001:00021849       __ehhandler$??0?$basic_ostream@DU?$char_traits@D@std@@@std@@QAE@PAV?$basic_streambuf@DU?$char_traits@D@std@@@1@_N@Z 10022849 f   libcpmt:cout.obj
 0001:00021864       __ehhandler$?_Init@ios_base@std@@IAEXXZ 10022864 f   libcpmt:cout.obj
 0001:00021864       __ehhandler$??0?$basic_streambuf@DU?$char_traits@D@std@@@std@@IAE@XZ 10022864 f   libcpmt:cout.obj
 0001:0002187f       __ehhandler$??1?$basic_filebuf@DU?$char_traits@D@std@@@std@@UAE@XZ 1002287f f   libcpmt:cout.obj
 0001:0002187f       __ehhandler$??1_Locimp@locale@std@@MAE@XZ 1002287f f   libcpmt:locale0.obj
 0001:0002187f       __ehhandler$??1_Init_atexit@@QAE@XZ 1002287f f   libcpmt:iosptrs.obj
 0001:0002189a       __ehhandler$??_D?$basic_ostream@DU?$char_traits@D@std@@@std@@QAEXXZ 1002289a f   libcpmt:cout.obj
 0001:0002189a       __ehhandler$??1?$basic_ios@DU?$char_traits@D@std@@@std@@UAE@XZ 1002289a f   libcpmt:cout.obj
 0001:000218b5       __ehhandler$??_Gios_base@std@@UAEPAXI@Z 100228b5 f   libcpmt:cout.obj
 0001:000218b5       __ehhandler$??_G?$basic_ios@DU?$char_traits@D@std@@@std@@UAEPAXI@Z 100228b5 f   libcpmt:cout.obj
 0001:000218d0       __unwindfunclet$?_Getcat@?$codecvt@DDU_Mbstatet@@@std@@SAIPAPBVfacet@locale@2@PBV42@@Z$0 100228d0 f   libcpmt:cout.obj
 0001:000218dd       __ehhandler$?_Getcat@?$codecvt@DDU_Mbstatet@@@std@@SAIPAPBVfacet@locale@2@PBV42@@Z 100228dd f   libcpmt:cout.obj
 0001:000218f8       __unwindfunclet$?uflow@?$basic_filebuf@DU?$char_traits@D@std@@@std@@MAEHXZ$0 100228f8 f   libcpmt:cout.obj
 0001:00021900       __ehhandler$?uflow@?$basic_filebuf@DU?$char_traits@D@std@@@std@@MAEHXZ 10022900 f   libcpmt:cout.obj
 0001:00021925       __unwindfunclet$?widen@?$basic_ios@DU?$char_traits@D@std@@@std@@QBEDD@Z$0 10022925 f   libcpmt:cout.obj
 0001:0002192d       __ehhandler$?widen@?$basic_ios@DU?$char_traits@D@std@@@std@@QBEDD@Z 1002292d f   libcpmt:cout.obj
 0001:00021948       __ehhandler$??1_Fac_node@std@@QAE@XZ 10022948 f   libcpmt:locale0.obj
 0001:00021963       __unwindfunclet$?_Init@locale@std@@CAPAV_Locimp@12@_N@Z$0 10022963 f   libcpmt:locale0.obj
 0001:0002196b       __ehhandler$?_Init@locale@std@@CAPAV_Locimp@12@_N@Z 1002296b f   libcpmt:locale0.obj
 0001:00021986       __unwindfunclet$?_Locimp_dtor@_Locimp@locale@std@@CAXPAV123@@Z$0 10022986 f   libcpmt:locale0.obj
 0001:0002198e       __ehhandler$?_Locimp_dtor@_Locimp@locale@std@@CAXPAV123@@Z 1002298e f   libcpmt:locale0.obj
 0001:000219a9       __ehhandler$?CallUnexpected@@YAXPBU_s_ESTypeList@@@Z 100229a9 f   libvcruntime:frame.obj
 0001:000219c4       __unwindfunclet$?_wcstombs_l_helper@@YAIPADPB_WIPAU__crt_locale_pointers@@@Z$0 100229c4 f   libucrt:wcstombs.obj
 0001:000219cc       __ehhandler$?_wcstombs_l_helper@@YAIPADPB_WIPAU__crt_locale_pointers@@@Z 100229cc f   libucrt:wcstombs.obj
 0001:000219f1       ??__Finitlocks@std@@YAXXZ  100229f1 f   libcpmt:xlock.obj
 0001:000219fb       ??__Fcout@std@@YAXXZ       100229fb f   libcpmt:cout.obj
 0001:00021a05       ??__Ffout@std@@YAXXZ       10022a05 f   libcpmt:cout.obj
 0001:00021a0f       ??__Finitlocks@@YAXXZ      10022a0f f   libcpmt:cout.obj
 0001:00021a19       ??__F_Fac_tidy_reg@std@@YAXXZ 10022a19 f   libcpmt:locale0.obj
 0001:00021a23       ??__Fclassic_locale@std@@YAXXZ 10022a23 f   libcpmt:locale0.obj
 0001:00021a2d       ??__Finit_atexit@@YAXXZ    10022a2d f   libcpmt:iosptrs.obj
 0001:00021a37       ??__Finitlocks@std@@YAXXZ  10022a37 f   libcpmt:iosptrs.obj
 0002:000001ac       ?initlocks$initializer$@std@@3P6AXXZA 100231ac     libcpmt:xlock.obj
 0002:000001b0       ?initlocks$initializer$@@3P6AXXZA 100231b0     libcpmt:cout.obj
 0002:000001b4       ?fout$initializer$@std@@3P6AXXZA 100231b4     libcpmt:cout.obj
 0002:000001b8       ?cout$initializer$@std@@3P6AXXZA 100231b8     libcpmt:cout.obj
 0002:000001bc       ?init_cout$initializer$@std@@3P6AXXZA 100231bc     libcpmt:cout.obj
 0002:000001c0       ?initlocks$initializer$@std@@3P6AXXZA 100231c0     libcpmt:iosptrs.obj
 0002:000001c4       ?init_atexit$initializer$@@3P6AXXZA 100231c4     libcpmt:iosptrs.obj
 0002:000001c8       ?_Fac_tidy_reg$initializer$@std@@3P6AXXZA 100231c8     libcpmt:locale0.obj
 0002:000001cc       ?classic_locale$initializer$@std@@3P6AXXZA 100231cc     libcpmt:locale0.obj
 0002:000001dc       ?pinit@@3P6AHXZA           100231dc     libcpmt:winapisupp.obj
 0002:00000408       ?_Sys_errtab@std@@3QBU_Sys_errtab_t@1@B 10023408     libcpmt:syserror.obj
 0002:00000678       ?_Win_errtab@std@@3QBU_Win_errtab_t@1@B 10023678     libcpmt:syserror.obj
 0002:000012b0       _digits                    100242b0     libcpmt:xstoul.obj
 0002:000012d8       _ndigs                     100242d8     libcpmt:xstoul.obj
 0002:00001300       _digits                    10024300     libcpmt:xstoull.obj
 0002:00001328       _ndigs                     10024328     libcpmt:xstoull.obj
 0002:00001350       ?LcidToLocaleNameTable@@3QBULcidToLocaleName@@B 10024350     libcpmt:winapinls.obj
 0002:00001a70       ?LocaleNameToIndexTable@@3QBULocaleNameIndex@@B 10024a70     libcpmt:winapinls.obj
 0002:0000340c       _GS_ExceptionPointers      1002640c     LIBCMT:gs_report.obj
 0002:00003438       ?ExceptionTemplate@?1??_CxxThrowException@@9@8@4UEHExceptionRecord@@B 10026438     libvcruntime:throw.obj
 0002:00003478       ?module_names@?A0x03f7da57@@3QBQB_WB 10026478     libvcruntime:winapi_downlevel.obj
 0002:00003530       ?candidate_modules@?1??try_get_FlsAlloc@@YAP6GKP6GXPAX@Z@ZXZ@4QBW4module_id@?A0x03f7da57@@B 10026530     libvcruntime:winapi_downlevel.obj
 0002:00003538       ?candidate_modules@?1??try_get_FlsFree@@YAP6GHK@ZXZ@4QBW4module_id@?A0x03f7da57@@B 10026538     libvcruntime:winapi_downlevel.obj
 0002:00003540       ?candidate_modules@?1??try_get_FlsGetValue@@YAP6GPAXK@ZXZ@4QBW4module_id@?A0x03f7da57@@B 10026540     libvcruntime:winapi_downlevel.obj
 0002:00003548       ?candidate_modules@?1??try_get_FlsSetValue@@YAP6GHKPAX@ZXZ@4QBW4module_id@?A0x03f7da57@@B 10026548     libvcruntime:winapi_downlevel.obj
 0002:00003550       ?candidate_modules@?1??try_get_InitializeCriticalSectionEx@@YAP6GHPAU_RTL_CRITICAL_SECTION@@KK@ZXZ@4QBW4module_id@?A0x03f7da57@@B 10026550     libvcruntime:winapi_downlevel.obj
 0002:00003558       ?tokenTable@@3QBQBDB       10026558     libvcruntime:undname.obj
 0002:00003598       ?nameTable@@3QBQBDB        10026598     libvcruntime:undname.obj
 0002:000036e0       ?rttiTable@@3QBQBDB        100266e0     libvcruntime:undname.obj
 0002:000044f8       ?errtable@@3QBUerrentry@?A0x31fdb9ec@@B 100274f8     libucrt:errno.obj
 0002:00004660       POW_name                   10027660     libucrt:pow_impl.obj
 0002:00004738       ___acrt_initializers       10027738     libucrt:initialization.obj
 0002:000047b8       __first_127char            100277b8     libucrt:wsetlocale.obj
 0002:00004df8       ?_names@?1??_get_fname@@9@9 10027df8     libucrt:fpexcept.obj
 0002:00004fc0       _over                      10027fc0     libucrt:fpctrl.obj
 0002:00004fcc       _under                     10027fcc     libucrt:fpctrl.obj
 0002:00004fd8       ?module_names@?A0x391cf84c@@3QBQB_WB 10027fd8     libucrt:winapi_thunks.obj
 0002:000054f8       ?candidate_modules@?1??try_get_AreFileApisANSI@@YAP6GHXZXZ@4QBW4module_id@?A0x391cf84c@@B 100284f8     libucrt:winapi_thunks.obj
 0002:0000550c       ?candidate_modules@?1??try_get_CompareStringEx@@YAP6GHPB_WK0H0HPAU_nlsversioninfo@@PAXJ@ZXZ@4QBW4module_id@?A0x391cf84c@@B 1002850c     libucrt:winapi_thunks.obj
 0002:00005524       ?candidate_modules@?1??try_get_EnumSystemLocalesEx@@YAP6GHP6GHPA_WKJ@ZKJPAX@ZXZ@4QBW4module_id@?A0x391cf84c@@B 10028524     libucrt:winapi_thunks.obj
 0002:00005540       ?candidate_modules@?1??try_get_FlsAlloc@@YAP6GKP6GXPAX@Z@ZXZ@4QBW4module_id@?A0x391cf84c@@B 10028540     libucrt:winapi_thunks.obj
 0002:00005554       ?candidate_modules@?1??try_get_FlsFree@@YAP6GHK@ZXZ@4QBW4module_id@?A0x391cf84c@@B 10028554     libucrt:winapi_thunks.obj
 0002:00005564       ?candidate_modules@?1??try_get_FlsGetValue@@YAP6GPAXK@ZXZ@4QBW4module_id@?A0x391cf84c@@B 10028564     libucrt:winapi_thunks.obj
 0002:00005578       ?candidate_modules@?1??try_get_FlsSetValue@@YAP6GHKPAX@ZXZ@4QBW4module_id@?A0x391cf84c@@B 10028578     libucrt:winapi_thunks.obj
 0002:0000558c       ?candidate_modules@?1??try_get_GetDateFormatEx@@YAP6GHPB_WKPBU_SYSTEMTIME@@0PA_WH0@ZXZ@4QBW4module_id@?A0x391cf84c@@B 1002858c     libucrt:winapi_thunks.obj
 0002:000055a4       ?candidate_modules@?1??try_get_GetLocaleInfoEx@@YAP6GHPB_WKPA_WH@ZXZ@4QBW4module_id@?A0x391cf84c@@B 100285a4     libucrt:winapi_thunks.obj
 0002:000055bc       ?candidate_modules@?1??try_get_GetTimeFormatEx@@YAP6GHPB_WKPBU_SYSTEMTIME@@0PA_WH@ZXZ@4QBW4module_id@?A0x391cf84c@@B 100285bc     libucrt:winapi_thunks.obj
 0002:000055d4       ?candidate_modules@?1??try_get_GetUserDefaultLocaleName@@YAP6GHPA_WH@ZXZ@4QBW4module_id@?A0x391cf84c@@B 100285d4     libucrt:winapi_thunks.obj
 0002:000055f8       ?candidate_modules@?1??try_get_InitializeCriticalSectionEx@@YAP6GHPAU_RTL_CRITICAL_SECTION@@KK@ZXZ@4QBW4module_id@?A0x391cf84c@@B 100285f8     libucrt:winapi_thunks.obj
 0002:0000561c       ?candidate_modules@?1??try_get_IsValidLocaleName@@YAP6GHPB_W@ZXZ@4QBW4module_id@?A0x391cf84c@@B 1002861c     libucrt:winapi_thunks.obj
 0002:00005638       ?candidate_modules@?1??try_get_LCMapStringEx@@YAP6GHPB_WK0HPA_WHPAU_nlsversioninfo@@PAXJ@ZXZ@4QBW4module_id@?A0x391cf84c@@B 10028638     libucrt:winapi_thunks.obj
 0002:00005650       ?candidate_modules@?1??try_get_LCIDToLocaleName@@YAP6GHKPA_WHK@ZXZ@4QBW4module_id@?A0x391cf84c@@B 10028650     libucrt:winapi_thunks.obj
 0002:0000566c       ?candidate_modules@?1??try_get_LocaleNameToLCID@@YAP6GKPB_WK@ZXZ@4QBW4module_id@?A0x391cf84c@@B 1002866c     libucrt:winapi_thunks.obj
 0002:00005688       ?candidate_modules@?1??try_get_AppPolicyGetProcessTerminationMethod@@YAP6GJPAXPAW4AppPolicyProcessTerminationMethod@@@ZXZ@4QBW4module_id@?A0x391cf84c@@B 10028688     libucrt:winapi_thunks.obj
 0002:000056c0       Shifter                    100286c0     libucrt:pow_pentium4.obj
 0002:000056d0       SIGMASK                    100286d0     libucrt:pow_pentium4.obj
 0002:000056e0       ONEMASK                    100286e0     libucrt:pow_pentium4.obj
 0002:000056f0       ABSVALMASK                 100286f0     libucrt:pow_pentium4.obj
 0002:00005700       cev                        10028700     libucrt:pow_pentium4.obj
 0002:00005728       HALFSIG                    10028728     libucrt:pow_pentium4.obj
 0002:00005730       LHN                        10028730     libucrt:pow_pentium4.obj
 0002:00005738       sNaN                       10028738     libucrt:pow_pentium4.obj
 0002:00005740       INF                        10028740     libucrt:pow_pentium4.obj
 0002:00005748       NEG_INF                    10028748     libucrt:pow_pentium4.obj
 0002:00005750       NEG_ZERO                   10028750     libucrt:pow_pentium4.obj
 0002:00005758       NEG_BIG                    10028758     libucrt:pow_pentium4.obj
 0002:00005760       POS_BIG                    10028760     libucrt:pow_pentium4.obj
 0002:00005768       EMIN                       10028768     libucrt:pow_pentium4.obj
 0002:00005770       QIND                       10028770     libucrt:pow_pentium4.obj
 0002:0000579e       _log2max                   1002879e     libucrt:87tran.obj
 0002:000057a8       _smallarg                  100287a8     libucrt:87tran.obj
 0002:000057b2       _half                      100287b2     libucrt:87tran.obj
 0002:000057fe       One                        100287fe     libucrt:87disp.obj
 0002:00005806       Three                      10028806     libucrt:87disp.obj
 0002:0000580e       XAMtoTagTab                1002880e     libucrt:87disp.obj
 0002:00005820       One                        10028820     libucrt:common.obj
 0002:00005834       DblMax                     10028834     libucrt:common.obj
 0002:0000583c       DblMin                     1002883c     libucrt:common.obj
 0002:00005844       IeeeAdjO                   10028844     libucrt:common.obj
 0002:0000584c       IeeeAdjU                   1002884c     libucrt:common.obj
 0002:00005854       _infinity                  10028854     libucrt:common.obj
 0002:0000585c       _zero                      1002885c     libucrt:common.obj
 0002:00005870       ?_mb_locale_names@@3QBQB_WB 10028870     libucrt:mbctype.obj
 0002:00006670       ?LcidToLocaleNameTable@?A0x881e4c05@@3QBULcidToLocaleName@1@B 10029670     libucrt:lcidtoname_downlevel.obj
 0002:00007790       ?LocaleNameToIndexTable@?A0x881e4c05@@3QBULocaleNameIndex@1@B 1002a790     libucrt:lcidtoname_downlevel.obj
 0002:0000bf60       LOG_name                   1002ef60     libucrt:log10_impl.obj
 0002:0000bf70       _One                       1002ef70     libucrt:ceil_pentium4.obj
 0002:0000bf80       _Bns                       1002ef80     libucrt:ceil_pentium4.obj
 0002:0000bf90       _Zero                      1002ef90     libucrt:ceil_pentium4.obj
 0002:0000bfa0       _S                         1002efa0     libucrt:ceil_pentium4.obj
 0002:0000bfb0       _NegZero                   1002efb0     libucrt:ceil_pentium4.obj
 0002:0000bfd0       emask                      1002efd0     libucrt:log10_pentium4.obj
 0002:0000bfe0       CC                         1002efe0     libucrt:log10_pentium4.obj
 0002:0000bff0       Magic                      1002eff0     libucrt:log10_pentium4.obj
 0002:0000c000       hi_mask                    1002f000     libucrt:log10_pentium4.obj
 0002:0000c010       LOG10_2                    1002f010     libucrt:log10_pentium4.obj
 0002:0000c020       place_L                    1002f020     libucrt:log10_pentium4.obj
 0002:0000c040       One                        1002f040     libucrt:log10_pentium4.obj
 0002:0000c050       Zero                       1002f050     libucrt:log10_pentium4.obj
 0002:0000c060       Two52                      1002f060     libucrt:log10_pentium4.obj
 0002:0000c070       Infs                       1002f070     libucrt:log10_pentium4.obj
 0002:0000c080       NaN                        1002f080     libucrt:log10_pentium4.obj
 0002:0000c090       coeff                      1002f090     libucrt:log10_pentium4.obj
 0002:0000e004       __unwindtable$??0?$basic_streambuf@DU?$char_traits@D@std@@@std@@IAE@XZ 10031004     libcpmt:cout.obj
 0002:0000e004       __unwindtable$?_Init@ios_base@std@@IAEXXZ 10031004     libcpmt:cout.obj
 0002:0000e00c       __ehfuncinfo$??0?$basic_streambuf@DU?$char_traits@D@std@@@std@@IAE@XZ 1003100c     libcpmt:cout.obj
 0002:0000e00c       __ehfuncinfo$?_Init@ios_base@std@@IAEXXZ 1003100c     libcpmt:cout.obj
 0002:0000e030       __unwindtable$??_D?$basic_ostream@DU?$char_traits@D@std@@@std@@QAEXXZ 10031030     libcpmt:cout.obj
 0002:0000e030       __unwindtable$??_G?$basic_ios@DU?$char_traits@D@std@@@std@@UAEPAXI@Z 10031030     libcpmt:cout.obj
 0002:0000e030       __unwindtable$??1?$basic_ios@DU?$char_traits@D@std@@@std@@UAE@XZ 10031030     libcpmt:cout.obj
 0002:0000e030       __unwindtable$??_Gios_base@std@@UAEPAXI@Z 10031030     libcpmt:cout.obj
 0002:0000e038       __ehfuncinfo$??1?$basic_ios@DU?$char_traits@D@std@@@std@@UAE@XZ 10031038     libcpmt:cout.obj
 0002:0000e038       __ehfuncinfo$??_Gios_base@std@@UAEPAXI@Z 10031038     libcpmt:cout.obj
 0002:0000e038       __ehfuncinfo$??_G?$basic_ios@DU?$char_traits@D@std@@@std@@UAEPAXI@Z 10031038     libcpmt:cout.obj
 0002:0000e038       __ehfuncinfo$??_D?$basic_ostream@DU?$char_traits@D@std@@@std@@QAEXXZ 10031038     libcpmt:cout.obj
 0002:0000e05c       __ehfuncinfo$??1?$basic_filebuf@DU?$char_traits@D@std@@@std@@UAE@XZ 1003105c     libcpmt:cout.obj
 0002:0000e05c       __ehfuncinfo$??1_Fac_node@std@@QAE@XZ 1003105c     libcpmt:locale0.obj
 0002:0000e05c       __ehfuncinfo$??1_Locimp@locale@std@@MAE@XZ 1003105c     libcpmt:locale0.obj
 0002:0000e05c       __ehfuncinfo$??1_Init_atexit@@QAE@XZ 1003105c     libcpmt:iosptrs.obj
 0002:0000e080       __unwindtable$?uflow@?$basic_filebuf@DU?$char_traits@D@std@@@std@@MAEHXZ 10031080     libcpmt:cout.obj
 0002:0000e088       __ehfuncinfo$?uflow@?$basic_filebuf@DU?$char_traits@D@std@@@std@@MAEHXZ 10031088     libcpmt:cout.obj
 0002:0000e0ac       __unwindtable$?widen@?$basic_ios@DU?$char_traits@D@std@@@std@@QBEDD@Z 100310ac     libcpmt:cout.obj
 0002:0000e0b4       __ehfuncinfo$?widen@?$basic_ios@DU?$char_traits@D@std@@@std@@QBEDD@Z 100310b4     libcpmt:cout.obj
 0002:0000e0d8       __unwindtable$??0?$basic_ostream@DU?$char_traits@D@std@@@std@@QAE@PAV?$basic_streambuf@DU?$char_traits@D@std@@@1@_N@Z 100310d8     libcpmt:cout.obj
 0002:0000e0e0       __ehfuncinfo$??0?$basic_ostream@DU?$char_traits@D@std@@@std@@QAE@PAV?$basic_streambuf@DU?$char_traits@D@std@@@1@_N@Z 100310e0     libcpmt:cout.obj
 0002:0000e104       __unwindtable$??$use_facet@V?$codecvt@DDU_Mbstatet@@@std@@@std@@YAABV?$codecvt@DDU_Mbstatet@@@0@ABVlocale@0@@Z 10031104     libcpmt:cout.obj
 0002:0000e114       __ehfuncinfo$??$use_facet@V?$codecvt@DDU_Mbstatet@@@std@@@std@@YAABV?$codecvt@DDU_Mbstatet@@@0@ABVlocale@0@@Z 10031114     libcpmt:cout.obj
 0002:0000e138       __unwindtable$?_Getcat@?$codecvt@DDU_Mbstatet@@@std@@SAIPAPBVfacet@locale@2@PBV42@@Z 10031138     libcpmt:cout.obj
 0002:0000e140       __ehfuncinfo$?_Getcat@?$codecvt@DDU_Mbstatet@@@std@@SAIPAPBVfacet@locale@2@PBV42@@Z 10031140     libcpmt:cout.obj
 0002:0000e19c       __unwindtable$?_Locimp_dtor@_Locimp@locale@std@@CAXPAV123@@Z 1003119c     libcpmt:locale0.obj
 0002:0000e1a4       __ehfuncinfo$?_Locimp_dtor@_Locimp@locale@std@@CAXPAV123@@Z 100311a4     libcpmt:locale0.obj
 0002:0000e1c8       __unwindtable$?_Init@locale@std@@CAPAV_Locimp@12@_N@Z 100311c8     libcpmt:locale0.obj
 0002:0000e1d0       __ehfuncinfo$?_Init@locale@std@@CAPAV_Locimp@12@_N@Z 100311d0     libcpmt:locale0.obj
 0002:0000e2c0       __sehtable$?dllmain_crt_process_attach@@YAHQAUHINSTANCE__@@QAX@Z 100312c0     LIBCMT:dll_dllmain.obj
 0002:0000e2e0       __sehtable$?dllmain_crt_process_detach@@YAH_N@Z 100312e0     LIBCMT:dll_dllmain.obj
 0002:0000e300       __sehtable$?dllmain_dispatch@@YAHQAUHINSTANCE__@@KQAX@Z 10031300     LIBCMT:dll_dllmain.obj
 0002:0000e320       __sehtable$___scrt_is_nonwritable_in_current_image 10031320     LIBCMT:utility.obj
 0002:0000e378       __sehtable$___DestructExceptionObject 10031378     libvcruntime:ehhelpers.obj
 0002:0000e398       __sehtable$?FrameUnwindToState@__FrameHandler3@@SAXPAUEHRegistrationNode@@PAXPBU_s_FuncInfo@@H@Z 10031398     libvcruntime:frame.obj
 0002:0000e3c0       __sehtable$?CallCatchBlock@@YAPAXPAUEHExceptionRecord@@PAUEHRegistrationNode@@PAU_CONTEXT@@PBU_s_FuncInfo@@PAXHK@Z 100313c0     libvcruntime:frame.obj
 0002:0000e3e8       __catchsym$?CallUnexpected@@YAXPBU_s_ESTypeList@@@Z$2 100313e8     libvcruntime:frame.obj
 0002:0000e3f8       __unwindtable$?CallUnexpected@@YAXPBU_s_ESTypeList@@@Z 100313f8     libvcruntime:frame.obj
 0002:0000e408       __tryblocktable$?CallUnexpected@@YAXPBU_s_ESTypeList@@@Z 10031408     libvcruntime:frame.obj
 0002:0000e41c       __ehfuncinfo$?CallUnexpected@@YAXPBU_s_ESTypeList@@@Z 1003141c     libvcruntime:frame.obj
 0002:0000e440       __sehtable$??$BuildCatchObjectHelperInternal@$$CBU_s_HandlerType@@@@YAHPAUEHExceptionRecord@@PAXPBU_s_HandlerType@@PBU_s_CatchableType@@@Z 10031440     libvcruntime:frame.obj
 0002:0000e460       __sehtable$??$BuildCatchObjectInternal@$$CBU_s_HandlerType@@@@YAXPAUEHExceptionRecord@@PAXPBU_s_HandlerType@@PBU_s_CatchableType@@@Z 10031460     libvcruntime:frame.obj
 0002:0000e4b8       __sehtable$_terminate      100314b8     libucrt:terminate.obj
 0002:0000e4d8       __sehtable$_fclose         100314d8     libucrt:fclose.obj
 0002:0000e4f8       __sehtable$??$?RV<lambda_2866be3712abc81a800a822484c830d8>@@AAV<lambda_39ca0ed439415581b5b15c265174cece>@@V<lambda_2b24c74d71094a6cd0cb82e44167d71b>@@@?$__crt_seh_guarded_call@X@@QAEX$$QAV<lambda_2866be3712abc81a800a822484c830d8>@@AAV<lambda_39ca0ed439415581b5b15c265174cece>@@$$QAV<lambda_2b24c74d71094a6cd0cb82e44167d71b>@@@Z 100314f8     libucrt:fflush.obj
 0002:0000e518       __sehtable$??$?RV<lambda_2cc53f568c5a2bb6f192f930a45d44ea>@@AAV<lambda_ab61a845afdef5b7c387490eaf3616ee>@@V<lambda_c2ffc0b7726aa6be21d5f0026187e748>@@@?$__crt_seh_guarded_call@X@@QAEX$$QAV<lambda_2cc53f568c5a2bb6f192f930a45d44ea>@@AAV<lambda_ab61a845afdef5b7c387490eaf3616ee>@@$$QAV<lambda_c2ffc0b7726aa6be21d5f0026187e748>@@@Z 10031518     libucrt:fflush.obj
 0002:0000e538       __sehtable$??$?RV<lambda_6d20deecaf4856105ebacbad442d1079>@@AAV<lambda_9a32fed5bf61b6b509b2d3f6003082a1>@@V<lambda_63ea2239ed67c638ddbae41947fdf875>@@@?$__crt_seh_guarded_call@H@@QAEH$$QAV<lambda_6d20deecaf4856105ebacbad442d1079>@@AAV<lambda_9a32fed5bf61b6b509b2d3f6003082a1>@@$$QAV<lambda_63ea2239ed67c638ddbae41947fdf875>@@@Z 10031538     libucrt:fflush.obj
 0002:0000e558       __sehtable$_fgetc          10031558     libucrt:fgetc.obj
 0002:0000e578       __sehtable$_fputc          10031578     libucrt:fputc.obj
 0002:0000e598       __sehtable$_fread_s        10031598     libucrt:fread.obj
 0002:0000e5b8       __sehtable$?common_fseek@@YAHV__crt_stdio_stream@@_JH@Z 100315b8     libucrt:fseek.obj
 0002:0000e5d8       __sehtable$??$?RV<lambda_cd3bfd923e8d1349099e544c97b1bd8e>@@AAV<lambda_54dcfcba6f8e0c549fa430f4d53fb7dd>@@V<lambda_5e1d0fa2aa2b73b187bf8b7e1d30c7f8>@@@?$__crt_seh_guarded_call@I@@QAEI$$QAV<lambda_cd3bfd923e8d1349099e544c97b1bd8e>@@AAV<lambda_54dcfcba6f8e0c549fa430f4d53fb7dd>@@$$QAV<lambda_5e1d0fa2aa2b73b187bf8b7e1d30c7f8>@@@Z 100315d8     libucrt:fwrite.obj
 0002:0000e5f8       __sehtable$??$?RV<lambda_70c0770dcc4f6ec6272bb01dc82d3c91>@@AAV<lambda_ca71763b3c0644891230e4f79ea54fa6>@@V<lambda_ca266f0f09348b8765c113e3a39a2bc1>@@@?$__crt_seh_guarded_call@H@@QAEH$$QAV<lambda_70c0770dcc4f6ec6272bb01dc82d3c91>@@AAV<lambda_ca71763b3c0644891230e4f79ea54fa6>@@$$QAV<lambda_ca266f0f09348b8765c113e3a39a2bc1>@@@Z 100315f8     libucrt:setvbuf.obj
 0002:0000e618       __sehtable$_ungetc         10031618     libucrt:ungetc.obj
 0002:0000e638       __sehtable$??$?RV<lambda_0fef6fff2b5e6b53303c9058db11ae1f>@@AAV<lambda_082c17da81b0962e08c0587ee0fac50c>@@V<lambda_fa6e051aed0a38726081083cc7c328e9>@@@?$__crt_seh_guarded_call@PAD@@QAEPAD$$QAV<lambda_0fef6fff2b5e6b53303c9058db11ae1f>@@AAV<lambda_082c17da81b0962e08c0587ee0fac50c>@@$$QAV<lambda_fa6e051aed0a38726081083cc7c328e9>@@@Z 10031638     libucrt:setlocale.obj
 0002:0000e658       __sehtable$__query_new_handler 10031658     libucrt:new_handler.obj
 0002:0000e678       __sehtable$??R<lambda_6e4b09c48022b2350581041d5f6b0c4c>@@QBE@XZ 10031678     libucrt:exit.obj
 0002:0000e698       __sehtable$??$?RV<lambda_03b1d95aef87969028cfba75ccab2455>@@AAV<lambda_6e4b09c48022b2350581041d5f6b0c4c>@@V<lambda_22bdf7517842c4b3e53723af5aa32b9e>@@@?$__crt_seh_guarded_call@X@@QAEX$$QAV<lambda_03b1d95aef87969028cfba75ccab2455>@@AAV<lambda_6e4b09c48022b2350581041d5f6b0c4c>@@$$QAV<lambda_22bdf7517842c4b3e53723af5aa32b9e>@@@Z 10031698     libucrt:exit.obj
 0002:0000e6b8       __sehtable$??$?RV<lambda_7ac4055421038abea736e08bd20712a4>@@AAV<lambda_a10e4b102d4a2c3aac6f4f48bbdf488f>@@V<lambda_1da61822885009acd1bf848af4f9644b>@@@?$__crt_seh_guarded_call@H@@QAEH$$QAV<lambda_7ac4055421038abea736e08bd20712a4>@@AAV<lambda_a10e4b102d4a2c3aac6f4f48bbdf488f>@@$$QAV<lambda_1da61822885009acd1bf848af4f9644b>@@@Z 100316b8     libucrt:onexit.obj
 0002:0000e6d8       __sehtable$??$?RV<lambda_69a2805e680e0e292e8ba93315fe43a8>@@AAV<lambda_f03950bc5685219e0bcd2087efbe011e>@@V<lambda_03fcd07e894ec930e3f35da366ca99d6>@@@?$__crt_seh_guarded_call@H@@QAEH$$QAV<lambda_69a2805e680e0e292e8ba93315fe43a8>@@AAV<lambda_f03950bc5685219e0bcd2087efbe011e>@@$$QAV<lambda_03fcd07e894ec930e3f35da366ca99d6>@@@Z 100316d8     libucrt:onexit.obj
 0002:0000e6f8       __sehtable$_raise          100316f8     libucrt:signal.obj
 0002:0000e718       __sehtable$??$?RV<lambda_cbab9ec6f41b0180b23cc171c22676b0>@@AAV<lambda_44731a7d0e6d81c3e6aa82d741081786>@@V<lambda_4b292cb8dd18144e164572427af410ab>@@@?$__crt_seh_guarded_call@P6AXH@Z@@QAEP6AXH@Z$$QAV<lambda_cbab9ec6f41b0180b23cc171c22676b0>@@AAV<lambda_44731a7d0e6d81c3e6aa82d741081786>@@$$QAV<lambda_4b292cb8dd18144e164572427af410ab>@@@Z 10031718     libucrt:signal.obj
 0002:0000e738       __sehtable$??$?RV<lambda_15ade71b0218206bbe3333a0c9b79046>@@AAV<lambda_da44e0f8b0f19ba52fefafb335991732>@@V<lambda_207f2d024fc103971653565357d6cd41>@@@?$__crt_seh_guarded_call@X@@QAEX$$QAV<lambda_15ade71b0218206bbe3333a0c9b79046>@@AAV<lambda_da44e0f8b0f19ba52fefafb335991732>@@$$QAV<lambda_207f2d024fc103971653565357d6cd41>@@@Z 10031738     libucrt:per_thread_data.obj
 0002:0000e758       __sehtable$??$?RV<lambda_a7e850c220f1c8d1e6efeecdedd162c6>@@AAV<lambda_46720907175c18b6c9d2717bc0d2d362>@@V<lambda_9048902d66e8d99359bc9897bbb930a8>@@@?$__crt_seh_guarded_call@X@@QAEX$$QAV<lambda_a7e850c220f1c8d1e6efeecdedd162c6>@@AAV<lambda_46720907175c18b6c9d2717bc0d2d362>@@$$QAV<lambda_9048902d66e8d99359bc9897bbb930a8>@@@Z 10031758     libucrt:per_thread_data.obj
 0002:0000e778       __sehtable$??$?RV<lambda_38edbb1296d33220d7e4dd0ed76b244a>@@AAV<lambda_5ce1d447e08cb34b2473517608e21441>@@V<lambda_fb385d3da700c9147fc39e65dd577a8c>@@@?$__crt_seh_guarded_call@X@@QAEX$$QAV<lambda_38edbb1296d33220d7e4dd0ed76b244a>@@AAV<lambda_5ce1d447e08cb34b2473517608e21441>@@$$QAV<lambda_fb385d3da700c9147fc39e65dd577a8c>@@@Z 10031778     libucrt:per_thread_data.obj
 0002:0000e798       __sehtable$??$?RV<lambda_6affb1475c98b40b75cdec977db92e3c>@@AAV<lambda_b8d4b9c228a6ecc3f80208dbb4b4a104>@@V<lambda_608742c3c92a14382c1684fc64f96c88>@@@?$__crt_seh_guarded_call@X@@QAEX$$QAV<lambda_6affb1475c98b40b75cdec977db92e3c>@@AAV<lambda_b8d4b9c228a6ecc3f80208dbb4b4a104>@@$$QAV<lambda_608742c3c92a14382c1684fc64f96c88>@@@Z 10031798     libucrt:per_thread_data.obj
 0002:0000e7b8       __sehtable$??$?RV<lambda_e5124f882df8998aaf41531e079ba474>@@AAV<lambda_3e16ef9562a7dcce91392c22ab16ea36>@@V<lambda_e25ca0880e6ef98be67edffd8c599615>@@@?$__crt_seh_guarded_call@X@@QAEX$$QAV<lambda_e5124f882df8998aaf41531e079ba474>@@AAV<lambda_3e16ef9562a7dcce91392c22ab16ea36>@@$$QAV<lambda_e25ca0880e6ef98be67edffd8c599615>@@@Z 100317b8     libucrt:wsetlocale.obj
 0002:0000e7d8       __sehtable$??$?RV<lambda_4fdada1b837b2abbf20876fac97688ad>@@AAV<lambda_b57350f2640456a0859d250846f69caf>@@V<lambda_eed5e4f92b5b7d55fa22c48c484aaa54>@@@?$__crt_seh_guarded_call@X@@QAEX$$QAV<lambda_4fdada1b837b2abbf20876fac97688ad>@@AAV<lambda_b57350f2640456a0859d250846f69caf>@@$$QAV<lambda_eed5e4f92b5b7d55fa22c48c484aaa54>@@@Z 100317d8     libucrt:wsetlocale.obj
 0002:0000e7f8       __sehtable$??$?RV<lambda_135d2772fca65dc1248eeaa1b56e886a>@@AAV<lambda_2a444430fde8c29194d880d93eed5e8f>@@AAV<lambda_8dff2cf36a5417162780cd64fa2883ef>@@@?$__crt_seh_guarded_call@X@@QAEX$$QAV<lambda_135d2772fca65dc1248eeaa1b56e886a>@@AAV<lambda_2a444430fde8c29194d880d93eed5e8f>@@AAV<lambda_8dff2cf36a5417162780cd64fa2883ef>@@@Z 100317f8     libucrt:wsetlocale.obj
 0002:0000e818       __sehtable$___acrt_initialize_lowio 10031818     libucrt:ioinit.obj
 0002:0000e838       __sehtable$??$?RV<lambda_93797fb4802c957ba6a7f08e1250235b>@@AAV<lambda_1f3ce6bd48e0aa2e72a71c02eee379d3>@@V<lambda_56cae30c9364c9b6c15aeaac05d0418e>@@@?$__crt_seh_guarded_call@H@@QAEH$$QAV<lambda_93797fb4802c957ba6a7f08e1250235b>@@AAV<lambda_1f3ce6bd48e0aa2e72a71c02eee379d3>@@$$QAV<lambda_56cae30c9364c9b6c15aeaac05d0418e>@@@Z 10031838     libucrt:winapi_thunks.obj
 0002:0000e858       __sehtable$__fcloseall     10031858     libucrt:closeall.obj
 0002:0000e878       __sehtable$??$?RV<lambda_218ce3db14220d0be481dae8ef3383b6>@@AAV<lambda_628dfdc04ba53c8bfc02c9951375f3f5>@@V<lambda_57dc472bd5c9d5f3b2cbca59b8a843ae>@@@?$__crt_seh_guarded_call@H@@QAEH$$QAV<lambda_218ce3db14220d0be481dae8ef3383b6>@@AAV<lambda_628dfdc04ba53c8bfc02c9951375f3f5>@@$$QAV<lambda_57dc472bd5c9d5f3b2cbca59b8a843ae>@@@Z 10031878     libucrt:close.obj
 0002:0000e898       __sehtable$??$?RV<lambda_9e9de3de5fa147e2223d7db92bc10aa6>@@AAV<lambda_38ce7e780aa69e748d6df282ebc68efe>@@V<lambda_8ca6da459f0f6780f1cff60fdc3d00e5>@@@?$__crt_seh_guarded_call@H@@QAEH$$QAV<lambda_9e9de3de5fa147e2223d7db92bc10aa6>@@AAV<lambda_38ce7e780aa69e748d6df282ebc68efe>@@$$QAV<lambda_8ca6da459f0f6780f1cff60fdc3d00e5>@@@Z 10031898     libucrt:commit.obj
 0002:0000e8b8       __sehtable$__write         100318b8     libucrt:write.obj
 0002:0000e8d8       __sehtable$??$common_ftell@_J@@YA_JV__crt_stdio_stream@@@Z 100318d8     libucrt:ftell.obj
 0002:0000e8f8       __sehtable$__read          100318f8     libucrt:read.obj
 0002:0000e918       __sehtable$??$common_lseek@_J@@YA_JH_JH@Z 10031918     libucrt:lseek.obj
 0002:0000e934       __unwindtable$?_wcstombs_l_helper@@YAIPADPB_WIPAU__crt_locale_pointers@@@Z 10031934     libucrt:wcstombs.obj
 0002:0000e93c       __ehfuncinfo$?_wcstombs_l_helper@@YAIPADPB_WIPAU__crt_locale_pointers@@@Z 1003193c     libucrt:wcstombs.obj
 0002:0000e960       __sehtable$?update_thread_multibyte_data_internal@@YAPAU__crt_multibyte_data@@QAU__acrt_ptd@@QAPAU1@@Z 10031960     libucrt:mbctype.obj
 0002:0000e980       __sehtable$??$?RV<lambda_ceb1ee4838e85a9d631eb091e2fbe199>@@AAV<lambda_ae742caa10f662c28703da3d2ea5e57e>@@V<lambda_cd08b5d6af4937fe54fc07d0c9bf6b37>@@@?$__crt_seh_guarded_call@X@@QAEX$$QAV<lambda_ceb1ee4838e85a9d631eb091e2fbe199>@@AAV<lambda_ae742caa10f662c28703da3d2ea5e57e>@@$$QAV<lambda_cd08b5d6af4937fe54fc07d0c9bf6b37>@@@Z 10031980     libucrt:mbctype.obj
 0002:0000e9a0       __sehtable$___acrt_update_thread_locale_data 100319a0     libucrt:locale_refcounting.obj
 0002:0000e9c0       __sehtable$___acrt_lowio_ensure_fh_exists 100319c0     libucrt:osfinfo.obj
 0002:0000e9e0       __sehtable$__IsNonwritableInCurrentImage 100319e0     LIBCMT:pesect.obj
 0002:0000ee30       .edata                     10031e30     NTDirect32.exp
 0002:0000ee58       rgpv                       10031e58     NTDirect32.exp
 0002:0000ee5c       rgszName                   10031e5c     NTDirect32.exp
 0002:0000ee60       rgwOrd                     10031e60     NTDirect32.exp
 0002:0000ee62       szName                     10031e62     NTDirect32.exp
 0002:0000ee72       $N00001                    10031e72     NTDirect32.exp
 0002:0000f07c       .idata$6                   1003207c     kernel32:KERNEL32.dll
 0002:0000f08a       .idata$6                   1003208a     NtDirect:NtDirect.dll
 0003:00000000       ?init@std@@3JA             10033000     libcpmt:xlock.obj
 0003:0000005c       ?atcount_cdecl@@3IA        1003305c     libcpmt:iosptrs.obj
 0003:00000080       ?__vcrt_flsindex@@3KA      10033080     libvcruntime:per_thread_data.obj
 0003:000001c0       ?errno_no_memory@@3HA      100331c0     libucrt:errno.obj
 0003:000001c4       ?doserrno_no_memory@@3KA   100331c4     libucrt:errno.obj
 0003:000001d0       ?__acrt_flsindex@@3KA      100331d0     libucrt:per_thread_data.obj
 0003:000001d4       __ctype_loc_style          100331d4     libucrt:wsetlocale.obj
 0003:000003e0       ?tzstd_program@@3PADA      100333e0     libucrt:timeset.obj
 0003:00000420       ?tzdst_program@@3PADA      10033420     libucrt:timeset.obj
 0003:00000460       ?tzname_states@@3PAY01PADA 10033460     libucrt:timeset.obj
 0003:00000688       __mbctypes                 10033688     libucrt:mbctype.obj
 0003:00000790       __mbcasemaps               10033790     libucrt:mbctype.obj
 0003:00000890       ?__rgctypeflag@@3PADA      10033890     libucrt:mbctype.obj
 0003:00000898       ?__rgcode_page_info@@3PAUcode_page_info@@A 10033898     libucrt:mbctype.obj
 0003:00000990       ?__dcrt_lowio_console_output_handle@@3PAXA 10033990     libucrt:initcon.obj
 0003:000009b0       __module                   100339b0     main.obj
 0003:00000ea8       ?initlocks@std@@3V_Init_locks@1@A 10033ea8     libcpmt:xlock.obj
 0003:00000eb0       ?mtx@std@@3PAU_RTL_CRITICAL_SECTION@@A 10033eb0     libcpmt:xlock.obj
 0003:00000f70       ?initlocks@@3V_Init_locks@std@@A 10033f70     libcpmt:cout.obj
 0003:00000f71       ?init_cout@std@@3U_Init_cout@1@A 10033f71     libcpmt:cout.obj
 0003:00000fc8       ?fout@std@@3V?$basic_filebuf@DU?$char_traits@D@std@@@1@A 10033fc8     libcpmt:cout.obj
 0003:0000104c       ?classic_locale@std@@3Vlocale@1@A 1003404c     libcpmt:locale0.obj
 0003:00001054       ?_Fac_tidy_reg@std@@3U_Fac_tidy_reg_t@1@B 10034054     libcpmt:locale0.obj
 0003:00001058       ?_Fac_head@std@@3PAU_Fac_node@1@A 10034058     libcpmt:locale0.obj
 0003:0000105c       _global_locale             1003405c     libcpmt:locale0.obj
 0003:00001060       ?registered@?1??_Setgloballocale@locale@std@@CAXPAX@Z@4_NA 10034060     libcpmt:locale0.obj
 0003:0000110c       ?stdstr@std@@3PAPAVios_base@1@A 1003410c     libcpmt:ios.obj
 0003:00001134       ?stdopens@std@@3PADA       10034134     libcpmt:ios.obj
 0003:00001160       ?initlocks@std@@3V_Init_locks@1@A 10034160     libcpmt:iosptrs.obj
 0003:00001161       ?init_atexit@@3U_Init_atexit@@A 10034161     libcpmt:iosptrs.obj
 0003:00001164       ?atfuns_cdecl@@3PAP6AXXZA  10034164     libcpmt:iosptrs.obj
 0003:00001208       ?__proc_attached@@3HA      10034208     LIBCMT:dll_dllmain.obj
 0003:00001214       ?is_initialized_as_dll@@3_NA 10034214     LIBCMT:utility.obj
 0003:00001215       ?module_local_atexit_table_initialized@@3_NA 10034215     LIBCMT:utility.obj
 0003:00001218       ?module_local_atexit_table@@3U_onexit_table_t@@A 10034218     LIBCMT:utility.obj
 0003:00001224       ?module_local_at_quick_exit_table@@3U_onexit_table_t@@A 10034224     LIBCMT:utility.obj
 0003:00001230       _GS_ExceptionRecord        10034230     LIBCMT:gs_report.obj
 0003:00001280       _GS_ContextRecord          10034280     LIBCMT:gs_report.obj
 0003:00001574       ?__vcrt_startup_thread_ptd@@3U__vcrt_ptd@@A 10034574     libvcruntime:per_thread_data.obj
 0003:0000159c       ___vcrt_lock_table         1003459c     libvcruntime:locks.obj
 0003:000015b4       ___vcrt_locks_initialized  100345b4     libvcruntime:locks.obj
 0003:000015b8       ?module_handles@@3PAPAUHINSTANCE__@@A 100345b8     libvcruntime:winapi_downlevel.obj
 0003:000015c4       ?encoded_function_pointers@@3PAPAXA 100345c4     libvcruntime:winapi_downlevel.obj
 0003:00001600       ?heap@@3V_HeapManager@@A   10034600     libvcruntime:undname.obj
 0003:00001614       ?__acrt_invalid_parameter_handler@@3V?$dual_state_global@P6AXPB_W00II@Z@__crt_state_management@@A 10034614     libucrt:invalid_parameter.obj
 0003:00001620       ?__acrt_lock_table@@3PAU_RTL_CRITICAL_SECTION@@A 10034620     libucrt:locks.obj
 0003:00001770       ?__acrt_locks_initialized@@3IA 10034770     libucrt:locks.obj
 0003:00001780       ?__acrt_new_handler@@3V?$dual_state_global@P6AHI@Z@__crt_state_management@@A 10034780     libucrt:new_handler.obj
 0003:00001784       ?c_termination_complete@@3JA 10034784     libucrt:exit.obj
 0003:00001788       ?thread_local_exit_callback_func@@3P6GXPAXK0@ZA 10034788     libucrt:exit.obj
 0003:00001790       ?program_name@?1???$common_configure_argv@D@@YAHW4_crt_argv_mode@@@Z@4PADA 10034790     libucrt:argv_parsing.obj
 0003:000018c0       ?ctrlc_action@@3V?$dual_state_global@P6AXH@Z@__crt_state_management@@A 100348c0     libucrt:signal.obj
 0003:000018c4       ?ctrlbreak_action@@3V?$dual_state_global@P6AXH@Z@__crt_state_management@@A 100348c4     libucrt:signal.obj
 0003:000018c8       ?abort_action@@3V?$dual_state_global@P6AXH@Z@__crt_state_management@@A 100348c8     libucrt:signal.obj
 0003:000018cc       ?term_action@@3V?$dual_state_global@P6AXH@Z@__crt_state_management@@A 100348cc     libucrt:signal.obj
 0003:000018d0       ?internal_state@?1??_mbtowc_l@@9@4U_Mbstatet@@A 100348d0     libucrt:mbtowc.obj
 0003:00001af0       ?module_handles@@3PAPAUHINSTANCE__@@A 10034af0     libucrt:winapi_thunks.obj
 0003:00001b40       ?encoded_function_pointers@@3PAPAXA 10034b40     libucrt:winapi_thunks.obj
 0003:00001bc8       ?static_enum_proc@?1??enum_system_locales_ex_nolock@@YAHQ6GHPA_WKJ@Z@Z@4P6GH0KJ@ZA 10034bc8     libucrt:winapi_thunks.obj
 0003:00001bdc       ?_tzname@@3V?$dual_state_global@PAPAD@__crt_state_management@@A 10034bdc     libucrt:timeset.obj
 0003:00001be0       ?tz_api_used@@3HA          10034be0     libucrt:tzset.obj
 0003:00001be8       ?tz_info@@3U_TIME_ZONE_INFORMATION@@A 10034be8     libucrt:tzset.obj
 0003:00001ca0       ?fSystemSet@@3HA           10034ca0     libucrt:mbctype.obj
 0003:00001ca4       ?initialized@?1??__acrt_initialize_multibyte@@9@4_NA 10034ca4     libucrt:mbctype.obj
 0003:00001cc4       ?user_matherr@@3V?$dual_state_global@P6AHPAU_exception@@@Z@__crt_state_management@@A 10034cc4     libucrt:matherr.obj
 0003:00001cc8       ?__acrt_global_new_mode@@3V?$dual_state_global@J@__crt_state_management@@A 10034cc8     libucrt:new_mode.obj
 0003:00001ccc       __pmatherr_set             10034ccc     libucrt:libm_error.obj
 0003:00001cd0       ?internal_pst@?1??__mbrtoc32_utf8@__crt_mbstring@@YAIPA_UPBDIPAU_Mbstatet@@@Z@4U3@A 10034cd0     libucrt:mbrtoc32.obj
 0003:00001cd8       ?__acrt_app_type@@3W4_crt_app_type@@A 10034cd8     libucrt:report_runtime_error.obj
 0003:00001cdc       ?internal_pst@?1??__c16rtomb_utf8@__crt_mbstring@@YAIPAD_SPAU_Mbstatet@@@Z@4U3@A 10034cdc     libucrt:c16rtomb.obj
 0004:00000060       $R000000                   10035060     * linker generated manifest res *

 Exports

  ordinal    name

        1    __register_NTDirect32_
               exported name: _register_NTDirect32_
